gavrasm Gerd's AVR assembler version 3.3 (C)2012 by DG4FAC
----------------------------------------------------------
Source file: build.s.parse
Hex file:    build.s.hex
Eeprom file: build.s.eep
Compiled:    08.02.2014, 19:08:32
Pass:        2
     1: .device atmega16
     2: cseg:
     3: .org 0x00
     4: 000000   940C  jmp 0x236 ;  0x236
        000001   0236
     5: 000002   940C  jmp 0x286 ;  0x286
        000003   0286
     6: 000004   940C  jmp 0x286 ;  0x286
        000005   0286
     7: 000006   940C  jmp 0x286 ;  0x286
        000007   0286
     8: 000008   940C  jmp 0x286 ;  0x286
        000009   0286
     9: 00000A   940C  jmp 0x286 ;  0x286
        00000B   0286
    10: 00000C   940C  jmp 0x286 ;  0x286
        00000D   0286
    11: 00000E   940C  jmp 0x286 ;  0x286
        00000F   0286
    12: 000010   940C  jmp 0x286 ;  0x286
        000011   0286
    13: 000012   940C  jmp 0x286 ;  0x286
        000013   0286
    14: 000014   940C  jmp 0x286 ;  0x286
        000015   0286
    15: 000016   940C  jmp 0x286 ;  0x286
        000017   0286
    16: 000018   940C  jmp 0x286 ;  0x286
        000019   0286
    17: 00001A   940C  jmp 0x286 ;  0x286
        00001B   0286
    18: 00001C   940C  jmp 0x286 ;  0x286
        00001D   0286
    19: 00001E   940C  jmp 0x286 ;  0x286
        00001F   0286
    20: 000020   940C  jmp 0x286 ;  0x286
        000021   0286
    21: 000022   940C  jmp 0x286 ;  0x286
        000023   0286
    22: 000024   940C  jmp 0x286 ;  0x286
        000025   0286
    23: 000026   940C  jmp 0x286 ;  0x286
        000027   0286
    24: 000028   940C  jmp 0x286 ;  0x286
        000029   0286
    25: 00002A   0000  nop
    26: 00002B   0000  nop
    27: 00002C   0000  nop
    28: 00002D   5F00  subi r16, 0xF0 ; 240
    29: 00002E   0000  nop
    30: 00002F   0700  cpc r16, r16
    31: 000030   0700  cpc r16, r16
    32: 000031   1400  cp r0, r0
    33: 000032   147F  cp r7, r15
    34: 000033   147F  cp r7, r15
    35: 000034   2A24  or r2, r20
    36: 000035   2A7F  or r7, r31
    37: 000036   2312  and r17, r18
    38: 000037   0813  sbc r1, r3
    39: 000038   6264  ori r22, 0x24 ; 36
    40: 000039   4936  sbci r19, 0x96 ; 150
    41: 00003A   2255  and r5, r21
    42: 00003B   0305  mulsu r16, r21
    43: 00003C   0000  nop
    44: 00003D   1C00  adc r0, r0
    45: 00003E   4122  sbci r18, 0x12 ; 18
    46: 00003F   0000  nop
    47: 000040   2241  and r4, r17
    48: 000041   2A08  or r0, r24
    49: 000042   2A1C  or r1, r28
    50: 000043   0808  sbc r0, r8
    51: 000044   3E08  cpi r16, 0xE8 ; 232
    52: 000045   0808  sbc r0, r8
    53: 000046   5000  subi r16, 0x00 ; 0
    54: 000047   0800  sbc r0, r0
    55: 000048   0808  sbc r0, r8
    56: 000049   0808  sbc r0, r8
    57: 00004A   6000  ori r16, 0x00 ; 0
    58: 00004B   2000  and r0, r0
    59: 00004C   0810  sbc r1, r0
    60: 00004D   0204  muls r16, r20
    61: 00004E   513E  subi r19, 0x1E ; 30
    62: 00004F   4549  sbci r20, 0x59 ; 89
    63: 000050   7F42  andi r20, 0xF2 ; 242
    64: 000051   6142  ori r20, 0x12 ; 18
    65: 000052   4951  sbci r21, 0x91 ; 145
    66: 000053   2146  and r20, r6
    67: 000054   4541  sbci r20, 0x51 ; 81
    68: 000055   314B  cpi r20, 0x1B ; 27
    69: 000056   1418  cp r1, r8
    70: 000057   7F12  andi r17, 0xF2 ; 242
    71: 000058   2710  eor r17, r16
    72: 000059   4545  sbci r20, 0x55 ; 85
    73: 00005A   3945  cpi r20, 0x95 ; 149
    74: 00005B   4A3C  sbci r19, 0xAC ; 172
    75: 00005C   4949  sbci r20, 0x99 ; 153
    76: 00005D   0130  movw r6, r0
    77: 00005E   0971  sbc r23, r1
    78: 00005F   0305  mulsu r16, r21
    79: 000060   4936  sbci r19, 0x96 ; 150
    80: 000061   4949  sbci r20, 0x99 ; 153
    81: 000062   0636  cpc r3, r22
    82: 000063   4949  sbci r20, 0x99 ; 153
    83: 000064   1E29  adc r2, r25
    84: 000065   3600  cpi r16, 0x60 ; 96
    85: 000066   0000  nop
    86: 000067   3656  cpi r21, 0x66 ; 102
    87: 000068   0000  nop
    88: 000069   0800  sbc r0, r0
    89: 00006A   2214  and r1, r20
    90: 00006B   1441  cp r4, r1
    91: 00006C   1414  cp r1, r4
    92: 00006D   1414  cp r1, r4
    93: 00006E   2241  and r4, r17
    94: 00006F   0814  sbc r1, r4
    95: 000070   0200  muls r16, r16
    96: 000071   5101  subi r16, 0x11 ; 17
    97: 000072   0609  cpc r0, r25
    98: 000073   4932  sbci r19, 0x92 ; 146
    99: 000074   4179  sbci r23, 0x19 ; 25
   100: 000075   7E3E  andi r19, 0xEE ; 238
   101: 000076   1111  cpse r17, r1
   102: 000077   7E11  andi r17, 0xE1 ; 225
   103: 000078   497F  sbci r23, 0x9F ; 159
   104: 000079   4949  sbci r20, 0x99 ; 153
   105: 00007A   3E36  cpi r19, 0xE6 ; 230
   106: 00007B   4141  sbci r20, 0x11 ; 17
   107: 00007C   2241  and r4, r17
   108: 00007D   417F  sbci r23, 0x1F ; 31
   109: 00007E   2241  and r4, r17
   110: 00007F   7F1C  andi r17, 0xFC ; 252
   111: 000080   4949  sbci r20, 0x99 ; 153
   112: 000081   4149  sbci r20, 0x19 ; 25
   113: 000082   097F  sbc r23, r15
   114: 000083   0109  movw r0, r18
   115: 000084   3E01  cpi r16, 0xE1 ; 225
   116: 000085   4141  sbci r20, 0x11 ; 17
   117: 000086   3251  cpi r21, 0x21 ; 33
   118: 000087   087F  sbc r7, r15
   119: 000088   0808  sbc r0, r8
   120: 000089   7F41  andi r20, 0xF1 ; 241
   121: 00008A   4020  sbci r18, 0x00 ; 0
   122: 00008B   3F41  cpi r20, 0xF1 ; 241
   123: 00008C   7F01  andi r16, 0xF1 ; 241
   124: 00008D   1408  cp r0, r8
   125: 00008E   4122  sbci r18, 0x12 ; 18
   126: 00008F   407F  sbci r23, 0x0F ; 15
   127: 000090   4040  sbci r20, 0x00 ; 0
   128: 000091   7F40  andi r20, 0xF0 ; 240
   129: 000092   0402  cpc r0, r2
   130: 000093   7F02  andi r16, 0xF2 ; 242
   131: 000094   047F  cpc r7, r15
   132: 000095   1008  cpse r0, r8
   133: 000096   3E7F  cpi r23, 0xEF ; 239
   134: 000097   4141  sbci r20, 0x11 ; 17
   135: 000098   3E41  cpi r20, 0xE1 ; 225
   136: 000099   097F  sbc r23, r15
   137: 00009A   0909  sbc r16, r9
   138: 00009B   3E06  cpi r16, 0xE6 ; 230
   139: 00009C   5141  subi r20, 0x11 ; 17
   140: 00009D   5E21  subi r18, 0xE1 ; 225
   141: 00009E   097F  sbc r23, r15
   142: 00009F   2919  or r17, r9
   143: 0000A0   4646  sbci r20, 0x66 ; 102
   144: 0000A1   4949  sbci r20, 0x99 ; 153
   145: 0000A2   3149  cpi r20, 0x19 ; 25
   146: 0000A3   0101  movw r0, r2
   147: 0000A4   017F  movw r14, r30
   148: 0000A5   3F01  cpi r16, 0xF1 ; 241
   149: 0000A6   4040  sbci r20, 0x00 ; 0
   150: 0000A7   3F40  cpi r20, 0xF0 ; 240
   151: 0000A8   201F  and r1, r15
   152: 0000A9   2040  and r4, r0
   153: 0000AA   7F1F  andi r17, 0xFF ; 255
   154: 0000AB   1820  sub r2, r0
   155: 0000AC   7F20  andi r18, 0xF0 ; 240
   156: 0000AD   1463  cp r6, r3
   157: 0000AE   1408  cp r0, r8
   158: 0000AF   0363  mulsu r22, r19
   159: 0000B0   7804  andi r16, 0x84 ; 132
   160: 0000B1   0304  mulsu r16, r20
   161: 0000B2   5161  subi r22, 0x11 ; 17
   162: 0000B3   4549  sbci r20, 0x59 ; 89
   163: 0000B4   7F00  andi r16, 0xF0 ; 240
   164: 0000B5   4141  sbci r20, 0x11 ; 17
   165: 0000B6   0402  cpc r0, r2
   166: 0000B7   1008  cpse r0, r8
   167: 0000B8   4120  sbci r18, 0x10 ; 16
   168: 0000B9   7F41  andi r20, 0xF1 ; 241
   169: 0000BA   0000  nop
   170: 0000BB   0204  muls r16, r20
   171: 0000BC   0201  muls r16, r17
   172: 0000BD   4004  sbci r16, 0x04 ; 4
   173: 0000BE   4040  sbci r20, 0x00 ; 0
   174: 0000BF   4040  sbci r20, 0x00 ; 0
   175: 0000C0   0100  movw r0, r0
   176: 0000C1   0402  cpc r0, r2
   177: 0000C2   2000  and r0, r0
   178: 0000C3   5454  subi r21, 0x44 ; 68
   179: 0000C4   7854  andi r21, 0x84 ; 132
   180: 0000C5   487F  sbci r23, 0x8F ; 143
   181: 0000C6   4444  sbci r20, 0x44 ; 68
   182: 0000C7   3838  cpi r19, 0x88 ; 136
   183: 0000C8   4444  sbci r20, 0x44 ; 68
   184: 0000C9   2044  and r4, r4
   185: 0000CA   4438  sbci r19, 0x48 ; 72
   186: 0000CB   4844  sbci r20, 0x84 ; 132
   187: 0000CC   387F  cpi r23, 0x8F ; 143
   188: 0000CD   5454  subi r21, 0x44 ; 68
   189: 0000CE   1854  sub r5, r4
   190: 0000CF   7E08  andi r16, 0xE8 ; 232
   191: 0000D0   0109  movw r0, r18
   192: 0000D1   0802  sbc r0, r2
   193: 0000D2   5414  subi r17, 0x44 ; 68
   194: 0000D3   3C54  cpi r21, 0xC4 ; 196
   195: 0000D4   087F  sbc r7, r15
   196: 0000D5   0404  cpc r0, r4
   197: 0000D6   7D44  andi r20, 0xD4 ; 212
   198: 0000D7   4020  sbci r18, 0x00 ; 0
   199: 0000D8   3D44  cpi r20, 0xD4 ; 212
   200: 0000D9   0000  nop
   201: 0000DA   107F  cpse r7, r15
   202: 0000DB   4428  sbci r18, 0x48 ; 72
   203: 0000DC   4100  sbci r16, 0x10 ; 16
   204: 0000DD   407F  sbci r23, 0x0F ; 15
   205: 0000DE   7C00  andi r16, 0xC0 ; 192
   206: 0000DF   1804  sub r0, r4
   207: 0000E0   7804  andi r16, 0x84 ; 132
   208: 0000E1   087C  sbc r7, r12
   209: 0000E2   0404  cpc r0, r4
   210: 0000E3   3878  cpi r23, 0x88 ; 136
   211: 0000E4   4444  sbci r20, 0x44 ; 68
   212: 0000E5   3844  cpi r20, 0x84 ; 132
   213: 0000E6   147C  cp r7, r12
   214: 0000E7   1414  cp r1, r4
   215: 0000E8   0808  sbc r0, r8
   216: 0000E9   1414  cp r1, r4
   217: 0000EA   7C18  andi r17, 0xC8 ; 200
   218: 0000EB   087C  sbc r7, r12
   219: 0000EC   0404  cpc r0, r4
   220: 0000ED   4808  sbci r16, 0x88 ; 136
   221: 0000EE   5454  subi r21, 0x44 ; 68
   222: 0000EF   2054  and r5, r4
   223: 0000F0   3F04  cpi r16, 0xF4 ; 244
   224: 0000F1   4044  sbci r20, 0x04 ; 4
   225: 0000F2   3C20  cpi r18, 0xC0 ; 192
   226: 0000F3   4040  sbci r20, 0x00 ; 0
   227: 0000F4   7C20  andi r18, 0xC0 ; 192
   228: 0000F5   201C  and r1, r12
   229: 0000F6   2040  and r4, r0
   230: 0000F7   3C1C  cpi r17, 0xCC ; 204
   231: 0000F8   3040  cpi r20, 0x00 ; 0
   232: 0000F9   3C40  cpi r20, 0xC0 ; 192
   233: 0000FA   2844  or r4, r4
   234: 0000FB   2810  or r1, r0
   235: 0000FC   0C44  add r4, r4
   236: 0000FD   5050  subi r21, 0x00 ; 0
   237: 0000FE   3C50  cpi r21, 0xC0 ; 192
   238: 0000FF   6444  ori r20, 0x44 ; 68
   239: 000100   4C54  sbci r21, 0xC4 ; 196
   240: 000101   3608  cpi r16, 0x68 ; 104
   241: 000102   0000  nop
   242: 000103   0000  nop
   243: 000104   3641  cpi r20, 0x61 ; 97
   244: 000105   0808  sbc r0, r8
   245: 000106   1C2A  adc r2, r10
   246: 000107   0808  sbc r0, r8
   247: 000108   2A1C  or r1, r28
   248: 000109   0808  sbc r0, r8
   249: 00010A   0468  cpc r6, r8
   250: 00010B   2411  eor r1, r1
   251: 00010C   BE1F  out 0x3f, r1 ; 63
   252: 00010D   E5CF  ldi r28, 0x5F ; 95
   253: 00010E   E0D4  ldi r29, 0x04 ; 4
   254: 00010F   BFDE  out 0x3e, r29 ; 62
   255: 000110   BFCD  out 0x3d, r28 ; 61
   256: 000111   E011  ldi r17, 0x01 ; 1
   257: 000112   E6A0  ldi r26, 0x60 ; 96
   258: 000113   E0B0  ldi r27, 0x00 ; 0
   259: 000114   E1E4  ldi r30, 0x14 ; 20
   260: 000115   E1F1  ldi r31, 0x11 ; 17
   261: 000116   C000  rjmp .+4       ;  0x252
   262: 000117   9005  lpm r0, Z+
   263: 000118   920D  st X+, r0
   264: 000119   39A8  cpi r26, 0x98 ; 152
   265: 00011A   07B1  cpc r27, r17
   266: 00011B   F401  brne .-10      ;  0x24e
   267: 00011C   E013  ldi r17, 0x03 ; 3
   268: 00011D   E9A8  ldi r26, 0x98 ; 152
   269: 00011E   E0B1  ldi r27, 0x01 ; 1
   270: 00011F   C000  rjmp .+2       ;  0x262
   271: 000120   921D  st X+, r1
   272: 000121   3AA3  cpi r26, 0xA3 ; 163
   273: 000122   07B1  cpc r27, r17
   274: 000123   F401  brne .-8       ;  0x260
   275: 000124   E012  ldi r17, 0x02 ; 2
   276: 000125   E3C6  ldi r28, 0x36 ; 54
   277: 000126   E0D2  ldi r29, 0x02 ; 2
   278: 000127   C000  rjmp .+8       ;  0x278
   279: 000128   9722  sbiw r28, 0x02 ; 2
   280: 000129   01FE  movw r30, r28
   281: 00012A   940E  call 0xa54 ;  0xa54
        00012B   0A54
   282: 00012C   33C4  cpi r28, 0x34 ; 52
   283: 00012D   07D1  cpc r29, r17
   284: 00012E   F401  brne .-14      ;  0x270
   285: 00012F   940E  call 0x5b4 ;  0x5b4
        000130   05B4
   286: 000131   940C  jmp 0x1110 ;  0x1110
        000132   1110
   287: 000133   940C  jmp 0 ;  0x0
        000134   0000
   288: 000135   B197  in r25, 0x07 ; 7
   289: 000136   7087  andi r24, 0x07 ; 7
   290: 000137   7F98  andi r25, 0xF8 ; 248
   291: 000138   2B89  or r24, r25
   292: 000139   B987  out 0x07, r24 ; 7
   293: 00013A   9A36  sbi 0x06, 6 ; 6
   294: 00013B   9936  sbic 0x06, 6 ; 6
   295: 00013C   C000  rjmp .-4       ;  0x296
   296: 00013D   B184  in r24, 0x04 ; 4
   297: 00013E   B195  in r25, 0x05 ; 5
   298: 00013F   9508  ret
   299: 000140   9A94  sbi 0x12, 4 ; 18
   300: 000141   E18A  ldi r24, 0x1A ; 26
   301: 000142   958A  dec r24
   302: 000143   F401  brne .-4       ;  0x2a4
   303: 000144   C000  rjmp .+0       ;  0x2aa
   304: 000145   9894  cbi 0x12, 4 ; 18
   305: 000146   E18A  ldi r24, 0x1A ; 26
   306: 000147   958A  dec r24
   307: 000148   F401  brne .-4       ;  0x2ae
   308: 000149   C000  rjmp .+0       ;  0x2b4
   309: 00014A   9A94  sbi 0x12, 4 ; 18
   310: 00014B   9508  ret
   311: 00014C   B395  in r25, 0x15 ; 21
   312: 00014D   BA15  out 0x15, r1 ; 21
   313: 00014E   3061  cpi r22, 0x01 ; 1
   314: 00014F   F401  brne .+30      ;  0x2de
   315: 000150   9895  cbi 0x12, 5 ; 18
   316: 000151   9A96  sbi 0x12, 6 ; 18
   317: 000152   BB85  out 0x15, r24 ; 21
   318: 000153   9A94  sbi 0x12, 4 ; 18
   319: 000154   E18A  ldi r24, 0x1A ; 26
   320: 000155   958A  dec r24
   321: 000156   F401  brne .-4       ;  0x2ca
   322: 000157   C000  rjmp .+0       ;  0x2d0
   323: 000158   9894  cbi 0x12, 4 ; 18
   324: 000159   E18A  ldi r24, 0x1A ; 26
   325: 00015A   958A  dec r24
   326: 00015B   F401  brne .-4       ;  0x2d4
   327: 00015C   C000  rjmp .+0       ;  0x2da
   328: 00015D   9A94  sbi 0x12, 4 ; 18
   329: 00015E   9508  ret
   330: 00015F   2366  and r22, r22
   331: 000160   F401  brne .+28      ;  0x2fe
   332: 000161   9895  cbi 0x12, 5 ; 18
   333: 000162   9896  cbi 0x12, 6 ; 18
   334: 000163   BB85  out 0x15, r24 ; 21
   335: 000164   9A94  sbi 0x12, 4 ; 18
   336: 000165   E18A  ldi r24, 0x1A ; 26
   337: 000166   958A  dec r24
   338: 000167   F401  brne .-4       ;  0x2ec
   339: 000168   C000  rjmp .+0       ;  0x2f2
   340: 000169   9894  cbi 0x12, 4 ; 18
   341: 00016A   E18A  ldi r24, 0x1A ; 26
   342: 00016B   958A  dec r24
   343: 00016C   F401  brne .-4       ;  0x2f6
   344: 00016D   C000  rjmp .+0       ;  0x2fc
   345: 00016E   9A94  sbi 0x12, 4 ; 18
   346: 00016F   9508  ret
   347: 000170   6B80  ori r24, 0xB0 ; 176
   348: 000171   E060  ldi r22, 0x00 ; 0
   349: 000172   940E  call 0x2b8 ;  0x2b8
        000173   02B8
   350: 000174   9508  ret
   351: 000175   93CF  push r28
   352: 000176   93DF  push r29
   353: 000177   2FC8  mov r28, r24
   354: 000178   E0D0  ldi r29, 0x00 ; 0
   355: 000179   01CE  movw r24, r28
   356: 00017A   E024  ldi r18, 0x04 ; 4
   357: 00017B   9595  asr r25
   358: 00017C   9587  ror r24
   359: 00017D   952A  dec r18
   360: 00017E   F401  brne .-8       ;  0x316
   361: 00017F   6180  ori r24, 0x10 ; 16
   362: 000180   E060  ldi r22, 0x00 ; 0
   363: 000181   940E  call 0x2b8 ;  0x2b8
        000182   02B8
   364: 000183   019E  movw r18, r28
   365: 000184   702F  andi r18, 0x0F ; 15
   366: 000185   2F82  mov r24, r18
   367: 000186   E060  ldi r22, 0x00 ; 0
   368: 000187   940E  call 0x2b8 ;  0x2b8
        000188   02B8
   369: 000189   91DF  pop r29
   370: 00018A   91CF  pop r28
   371: 00018B   9508  ret
   372: 00018C   E0A1  ldi r26, 0x01 ; 1
   373: 00018D   E0B0  ldi r27, 0x00 ; 0
   374: 00018E   EAE2  ldi r30, 0xA2 ; 162
   375: 00018F   E0F1  ldi r31, 0x01 ; 1
   376: 000190   940C  jmp 0x9da ;  0x9da
        000191   09DA
   377: 000192   3066  cpi r22, 0x06 ; 6
   378: 000193   F000  brcs .+2       ;  0x34a
   379: 000194   E066  ldi r22, 0x06 ; 6
   380: 000195   3684  cpi r24, 0x64 ; 100
   381: 000196   F000  brcs .+2       ;  0x350
   382: 000197   E684  ldi r24, 0x64 ; 100
   383: 000198   8369  std Y+1, r22 ; 0x01
   384: 000199   940E  call 0x30a ;  0x30a
        00019A   030A
   385: 00019B   8169  ldd r22, Y+1 ; 0x01
   386: 00019C   2F86  mov r24, r22
   387: 00019D   940E  call 0x300 ;  0x300
        00019E   0300
   388: 00019F   9621  adiw r28, 0x01 ; 1
   389: 0001A0   E0E2  ldi r30, 0x02 ; 2
   390: 0001A1   940C  jmp 0xa12 ;  0xa12
        0001A2   0A12
   391: 0001A3   E0A1  ldi r26, 0x01 ; 1
   392: 0001A4   E0B0  ldi r27, 0x00 ; 0
   393: 0001A5   EBE9  ldi r30, 0xB9 ; 185
   394: 0001A6   E0F1  ldi r31, 0x01 ; 1
   395: 0001A7   940C  jmp 0x9d6 ;  0x9d6
        0001A8   09D6
   396: 0001A9   2F16  mov r17, r22
   397: 0001AA   3684  cpi r24, 0x64 ; 100
   398: 0001AB   F400  brcc .+116     ;  0x3ec
   399: 0001AC   3360  cpi r22, 0x30 ; 48
   400: 0001AD   F400  brcc .+112     ;  0x3ec
   401: 0001AE   9566  lsr r22
   402: 0001AF   9566  lsr r22
   403: 0001B0   9566  lsr r22
   404: 0001B1   8349  std Y+1, r20 ; 0x01
   405: 0001B2   940E  call 0x338 ;  0x338
        0001B3   0338
   406: 0001B4   EE80  ldi r24, 0xE0 ; 224
   407: 0001B5   E060  ldi r22, 0x00 ; 0
   408: 0001B6   940E  call 0x2b8 ;  0x2b8
        0001B7   02B8
   409: 0001B8   BA14  out 0x14, r1 ; 20
   410: 0001B9   BA13  out 0x13, r1 ; 19
   411: 0001BA   9A95  sbi 0x12, 5 ; 18
   412: 0001BB   9A96  sbi 0x12, 6 ; 18
   413: 0001BC   940E  call 0x2a0 ;  0x2a0
        0001BD   02A0
   414: 0001BE   E18A  ldi r24, 0x1A ; 26
   415: 0001BF   958A  dec r24
   416: 0001C0   F401  brne .-4       ;  0x39e
   417: 0001C1   C000  rjmp .+0       ;  0x3a4
   418: 0001C2   940E  call 0x2a0 ;  0x2a0
        0001C3   02A0
   419: 0001C4   E1EA  ldi r30, 0x1A ; 26
   420: 0001C5   95EA  dec r30
   421: 0001C6   F401  brne .-4       ;  0x3aa
   422: 0001C7   C000  rjmp .+0       ;  0x3b0
   423: 0001C8   B303  in r16, 0x13 ; 19
   424: 0001C9   EF8F  ldi r24, 0xFF ; 255
   425: 0001CA   BB84  out 0x14, r24 ; 20
   426: 0001CB   2F80  mov r24, r16
   427: 0001CC   E061  ldi r22, 0x01 ; 1
   428: 0001CD   940E  call 0x2b8 ;  0x2b8
        0001CE   02B8
   429: 0001CF   EE8E  ldi r24, 0xEE ; 238
   430: 0001D0   E060  ldi r22, 0x00 ; 0
   431: 0001D1   940E  call 0x2b8 ;  0x2b8
        0001D2   02B8
   432: 0001D3   7017  andi r17, 0x07 ; 7
   433: 0001D4   E021  ldi r18, 0x01 ; 1
   434: 0001D5   E030  ldi r19, 0x00 ; 0
   435: 0001D6   2F82  mov r24, r18
   436: 0001D7   2E01  mov r0, r17
   437: 0001D8   C000  rjmp .+2       ;  0x3d4
   438: 0001D9   0F88  add r24, r24
   439: 0001DA   940A  dec r0
   440: 0001DB   F402  brpl .-6       ;  0x3d2
   441: 0001DC   8149  ldd r20, Y+1 ; 0x01
   442: 0001DD   2344  and r20, r20
   443: 0001DE   F001  breq .+4       ;  0x3e2
   444: 0001DF   2B80  or r24, r16
   445: 0001E0   C000  rjmp .+4       ;  0x3e6
   446: 0001E1   9580  com r24
   447: 0001E2   2380  and r24, r16
   448: 0001E3   E061  ldi r22, 0x01 ; 1
   449: 0001E4   940E  call 0x2b8 ;  0x2b8
        0001E5   02B8
   450: 0001E6   9621  adiw r28, 0x01 ; 1
   451: 0001E7   E0E4  ldi r30, 0x04 ; 4
   452: 0001E8   940C  jmp 0xa0e ;  0xa0e
        0001E9   0A0E
   453: 0001EA   3184  cpi r24, 0x14 ; 20
   454: 0001EB   F400  brcc .+16      ;  0x408
   455: 0001EC   3066  cpi r22, 0x06 ; 6
   456: 0001ED   F400  brcc .+12      ;  0x408
   457: 0001EE   2F98  mov r25, r24
   458: 0001EF   0F99  add r25, r25
   459: 0001F0   0F99  add r25, r25
   460: 0001F1   0F89  add r24, r25
   461: 0001F2   940E  call 0x338 ;  0x338
        0001F3   0338
   462: 0001F4   9508  ret
   463: 0001F5   5880  subi r24, 0x80 ; 128
   464: 0001F6   E060  ldi r22, 0x00 ; 0
   465: 0001F7   940E  call 0x2b8 ;  0x2b8
        0001F8   02B8
   466: 0001F9   9508  ret
   467: 0001FA   E0A0  ldi r26, 0x00 ; 0
   468: 0001FB   E0B0  ldi r27, 0x00 ; 0
   469: 0001FC   E1E0  ldi r30, 0x10 ; 16
   470: 0001FD   E0F2  ldi r31, 0x02 ; 2
   471: 0001FE   940C  jmp 0x9ca ;  0x9ca
        0001FF   09CA
   472: 000200   015C  movw r10, r24
   473: 000201   01EC  movw r28, r24
   474: 000202   9009  ld r0, Y+
   475: 000203   2000  and r0, r0
   476: 000204   F401  brne .-6       ;  0x424
   477: 000205   9721  sbiw r28, 0x01 ; 1
   478: 000206   1BC8  sub r28, r24
   479: 000207   0BD9  sbc r29, r25
   480: 000208   31C5  cpi r28, 0x15 ; 21
   481: 000209   05D1  cpc r29, r1
   482: 00020A   F004  brlt .+4       ;  0x43a
   483: 00020B   E1C4  ldi r28, 0x14 ; 20
   484: 00020C   E0D0  ldi r29, 0x00 ; 0
   485: 00020D   EE80  ldi r24, 0xE0 ; 224
   486: 00020E   E060  ldi r22, 0x00 ; 0
   487: 00020F   940E  call 0x2b8 ;  0x2b8
        000210   02B8
   488: 000211   24CC  eor r12, r12
   489: 000212   24DD  eor r13, r13
   490: 000213   C000  rjmp .+62      ;  0x486
   491: 000214   01F5  movw r30, r10
   492: 000215   9181  ld r24, Z+
   493: 000216   015F  movw r10, r30
   494: 000217   5280  subi r24, 0x20 ; 32
   495: 000218   E000  ldi r16, 0x00 ; 0
   496: 000219   E010  ldi r17, 0x00 ; 0
   497: 00021A   E090  ldi r25, 0x00 ; 0
   498: 00021B   017C  movw r14, r24
   499: 00021C   0CEE  add r14, r14
   500: 00021D   1CFF  adc r15, r15
   501: 00021E   0CEE  add r14, r14
   502: 00021F   1CFF  adc r15, r15
   503: 000220   0EE8  add r14, r24
   504: 000221   1EF9  adc r15, r25
   505: 000222   01F8  movw r30, r16
   506: 000223   0DEE  add r30, r14
   507: 000224   1DFF  adc r31, r15
   508: 000225   5AEC  subi r30, 0xAC ; 172
   509: 000226   4FFF  sbci r31, 0xFF ; 255
   510: 000227   9185  lpm r24, Z+
   511: 000228   E061  ldi r22, 0x01 ; 1
   512: 000229   940E  call 0x2b8 ;  0x2b8
        00022A   02B8
   513: 00022B   5F0F  subi r16, 0xFF ; 255
   514: 00022C   4F1F  sbci r17, 0xFF ; 255
   515: 00022D   3005  cpi r16, 0x05 ; 5
   516: 00022E   0511  cpc r17, r1
   517: 00022F   F401  brne .-28      ;  0x464
   518: 000230   9408  sec
   519: 000231   1CC1  adc r12, r1
   520: 000232   1CD1  adc r13, r1
   521: 000233   16CC  cp r12, r28
   522: 000234   06DD  cpc r13, r29
   523: 000235   F004  brlt .-68      ;  0x448
   524: 000236   EE8E  ldi r24, 0xEE ; 238
   525: 000237   E060  ldi r22, 0x00 ; 0
   526: 000238   940E  call 0x2b8 ;  0x2b8
        000239   02B8
   527: 00023A   E080  ldi r24, 0x00 ; 0
   528: 00023B   940E  call 0x30a ;  0x30a
        00023C   030A
   529: 00023D   B7CD  in r28, 0x3d ; 61
   530: 00023E   B7DE  in r29, 0x3e ; 62
   531: 00023F   E0EA  ldi r30, 0x0A ; 10
   532: 000240   940C  jmp 0xa02 ;  0xa02
        000241   0A02
   533: 000242   019C  movw r18, r24
   534: 000243   3181  cpi r24, 0x11 ; 17
   535: 000244   0591  cpc r25, r1
   536: 000245   F004  brlt .+28      ;  0x4c8
   537: 000246   01FC  movw r30, r24
   538: 000247   57E8  subi r30, 0x78 ; 120
   539: 000248   4FFE  sbci r31, 0xFE ; 254
   540: 000249   E081  ldi r24, 0x01 ; 1
   541: 00024A   E090  ldi r25, 0x00 ; 0
   542: 00024B   8140  ld r20, Z
   543: 00024C   2344  and r20, r20
   544: 00024D   F401  brne .+4       ;  0x4c0
   545: 00024E   E080  ldi r24, 0x00 ; 0
   546: 00024F   E090  ldi r25, 0x00 ; 0
   547: 000250   3F20  cpi r18, 0xF0 ; 240
   548: 000251   0531  cpc r19, r1
   549: 000252   F404  brge .+22      ;  0x4dc
   550: 000253   C000  rjmp .+4       ;  0x4cc
   551: 000254   E080  ldi r24, 0x00 ; 0
   552: 000255   E090  ldi r25, 0x00 ; 0
   553: 000256   01F9  movw r30, r18
   554: 000257   56E8  subi r30, 0x68 ; 104
   555: 000258   4FFE  sbci r31, 0xFE ; 254
   556: 000259   E041  ldi r20, 0x01 ; 1
   557: 00025A   E050  ldi r21, 0x00 ; 0
   558: 00025B   8960  ldd r22, Z+16 ; 0x10
   559: 00025C   2366  and r22, r22
   560: 00025D   F401  brne .+4       ;  0x4e0
   561: 00025E   E040  ldi r20, 0x00 ; 0
   562: 00025F   E050  ldi r21, 0x00 ; 0
   563: 000260   0F84  add r24, r20
   564: 000261   1F95  adc r25, r21
   565: 000262   3022  cpi r18, 0x02 ; 2
   566: 000263   0531  cpc r19, r1
   567: 000264   F004  brlt .+16      ;  0x4fa
   568: 000265   01F9  movw r30, r18
   569: 000266   56E9  subi r30, 0x69 ; 105
   570: 000267   4FFE  sbci r31, 0xFE ; 254
   571: 000268   E041  ldi r20, 0x01 ; 1
   572: 000269   E050  ldi r21, 0x00 ; 0
   573: 00026A   8160  ld r22, Z
   574: 00026B   2366  and r22, r22
   575: 00026C   F401  brne .+4       ;  0x4fe
   576: 00026D   E040  ldi r20, 0x00 ; 0
   577: 00026E   E050  ldi r21, 0x00 ; 0
   578: 00026F   0F48  add r20, r24
   579: 000270   1F59  adc r21, r25
   580: 000271   3F2F  cpi r18, 0xFF ; 255
   581: 000272   0531  cpc r19, r1
   582: 000273   F404  brge .+16      ;  0x518
   583: 000274   01F9  movw r30, r18
   584: 000275   56E8  subi r30, 0x68 ; 104
   585: 000276   4FFE  sbci r31, 0xFE ; 254
   586: 000277   E081  ldi r24, 0x01 ; 1
   587: 000278   E090  ldi r25, 0x00 ; 0
   588: 000279   8161  ldd r22, Z+1 ; 0x01
   589: 00027A   2366  and r22, r22
   590: 00027B   F401  brne .+4       ;  0x51c
   591: 00027C   E080  ldi r24, 0x00 ; 0
   592: 00027D   E090  ldi r25, 0x00 ; 0
   593: 00027E   0F84  add r24, r20
   594: 00027F   1F95  adc r25, r21
   595: 000280   3120  cpi r18, 0x10 ; 16
   596: 000281   0531  cpc r19, r1
   597: 000282   F004  brlt .+16      ;  0x536
   598: 000283   01F9  movw r30, r18
   599: 000284   57E7  subi r30, 0x77 ; 119
   600: 000285   4FFE  sbci r31, 0xFE ; 254
   601: 000286   E061  ldi r22, 0x01 ; 1
   602: 000287   E070  ldi r23, 0x00 ; 0
   603: 000288   8140  ld r20, Z
   604: 000289   2344  and r20, r20
   605: 00028A   F401  brne .+4       ;  0x53a
   606: 00028B   E060  ldi r22, 0x00 ; 0
   607: 00028C   E070  ldi r23, 0x00 ; 0
   608: 00028D   0F68  add r22, r24
   609: 00028E   1F79  adc r23, r25
   610: 00028F   3122  cpi r18, 0x12 ; 18
   611: 000290   0531  cpc r19, r1
   612: 000291   F004  brlt .+16      ;  0x554
   613: 000292   01F9  movw r30, r18
   614: 000293   57E9  subi r30, 0x79 ; 121
   615: 000294   4FFE  sbci r31, 0xFE ; 254
   616: 000295   E041  ldi r20, 0x01 ; 1
   617: 000296   E050  ldi r21, 0x00 ; 0
   618: 000297   8180  ld r24, Z
   619: 000298   2388  and r24, r24
   620: 000299   F401  brne .+4       ;  0x558
   621: 00029A   E040  ldi r20, 0x00 ; 0
   622: 00029B   E050  ldi r21, 0x00 ; 0
   623: 00029C   0F46  add r20, r22
   624: 00029D   1F57  adc r21, r23
   625: 00029E   3F21  cpi r18, 0xF1 ; 241
   626: 00029F   0531  cpc r19, r1
   627: 0002A0   F404  brge .+16      ;  0x572
   628: 0002A1   01F9  movw r30, r18
   629: 0002A2   56E8  subi r30, 0x68 ; 104
   630: 0002A3   4FFE  sbci r31, 0xFE ; 254
   631: 0002A4   E081  ldi r24, 0x01 ; 1
   632: 0002A5   E090  ldi r25, 0x00 ; 0
   633: 0002A6   8567  ldd r22, Z+15 ; 0x0f
   634: 0002A7   2366  and r22, r22
   635: 0002A8   F401  brne .+4       ;  0x576
   636: 0002A9   E080  ldi r24, 0x00 ; 0
   637: 0002AA   E090  ldi r25, 0x00 ; 0
   638: 0002AB   0F84  add r24, r20
   639: 0002AC   1F95  adc r25, r21
   640: 0002AD   3E2F  cpi r18, 0xEF ; 239
   641: 0002AE   0531  cpc r19, r1
   642: 0002AF   F404  brge .+16      ;  0x590
   643: 0002B0   5628  subi r18, 0x68 ; 104
   644: 0002B1   4F3E  sbci r19, 0xFE ; 254
   645: 0002B2   E041  ldi r20, 0x01 ; 1
   646: 0002B3   E050  ldi r21, 0x00 ; 0
   647: 0002B4   01F9  movw r30, r18
   648: 0002B5   8921  ldd r18, Z+17 ; 0x11
   649: 0002B6   2322  and r18, r18
   650: 0002B7   F401  brne .+4       ;  0x594
   651: 0002B8   E040  ldi r20, 0x00 ; 0
   652: 0002B9   E050  ldi r21, 0x00 ; 0
   653: 0002BA   0F84  add r24, r20
   654: 0002BB   1F95  adc r25, r21
   655: 0002BC   9508  ret
   656: 0002BD   01DC  movw r26, r24
   657: 0002BE   50A0  subi r26, 0x00 ; 0
   658: 0002BF   4FBF  sbci r27, 0xFF ; 255
   659: 0002C0   E9E8  ldi r30, 0x98 ; 152
   660: 0002C1   E0F2  ldi r31, 0x02 ; 2
   661: 0002C2   C000  rjmp .+4       ;  0x5aa
   662: 0002C3   918E  ld r24, -X
   663: 0002C4   9382  st -Z, r24
   664: 0002C5   E081  ldi r24, 0x01 ; 1
   665: 0002C6   39E8  cpi r30, 0x98 ; 152
   666: 0002C7   07F8  cpc r31, r24
   667: 0002C8   F401  brne .-12      ;  0x5a6
   668: 0002C9   9508  ret
   669: 0002CA   922F  push r2
   670: 0002CB   923F  push r3
   671: 0002CC   924F  push r4
   672: 0002CD   925F  push r5
   673: 0002CE   926F  push r6
   674: 0002CF   927F  push r7
   675: 0002D0   928F  push r8
   676: 0002D1   929F  push r9
   677: 0002D2   92AF  push r10
   678: 0002D3   92BF  push r11
   679: 0002D4   92DF  push r13
   680: 0002D5   92EF  push r14
   681: 0002D6   92FF  push r15
   682: 0002D7   930F  push r16
   683: 0002D8   931F  push r17
   684: 0002D9   93DF  push r29
   685: 0002DA   93CF  push r28
   686: 0002DB   B7CD  in r28, 0x3d ; 61
   687: 0002DC   B7DE  in r29, 0x3e ; 62
   688: 0002DD   9765  sbiw r28, 0x15 ; 21
   689: 0002DE   B60F  in r0, 0x3f ; 63
   690: 0002DF   94F8  cli
   691: 0002E0   BFDE  out 0x3e, r29 ; 62
   692: 0002E1   BE0F  out 0x3f, r0 ; 63
   693: 0002E2   BFCD  out 0x3d, r28 ; 61
   694: 0002E3   EF0F  ldi r16, 0xFF ; 255
   695: 0002E4   C000  rjmp .+16      ;  0x5fa
   696: 0002E5   3006  cpi r16, 0x06 ; 6
   697: 0002E6   F400  brcc .+12      ;  0x5fa
   698: 0002E7   2FE0  mov r30, r16
   699: 0002E8   E0F0  ldi r31, 0x00 ; 0
   700: 0002E9   56EE  subi r30, 0x6E ; 110
   701: 0002EA   4FFE  sbci r31, 0xFE ; 254
   702: 0002EB   8110  ld r17, Z
   703: 0002EC   C000  rjmp .+2       ;  0x5fc
   704: 0002ED   E010  ldi r17, 0x00 ; 0
   705: 0002EE   2EE1  mov r14, r17
   706: 0002EF   94E2  swap r14
   707: 0002F0   E0AF  ldi r26, 0x0F ; 15
   708: 0002F1   22EA  and r14, r26
   709: 0002F2   EB86  ldi r24, 0xB6 ; 182
   710: 0002F3   E060  ldi r22, 0x00 ; 0
   711: 0002F4   940E  call 0x2b8 ;  0x2b8
        0002F5   02B8
   712: 0002F6   2D8E  mov r24, r14
   713: 0002F7   6180  ori r24, 0x10 ; 16
   714: 0002F8   E060  ldi r22, 0x00 ; 0
   715: 0002F9   940E  call 0x2b8 ;  0x2b8
        0002FA   02B8
   716: 0002FB   2F81  mov r24, r17
   717: 0002FC   708F  andi r24, 0x0F ; 15
   718: 0002FD   E060  ldi r22, 0x00 ; 0
   719: 0002FE   940E  call 0x2b8 ;  0x2b8
        0002FF   02B8
   720: 000300   E080  ldi r24, 0x00 ; 0
   721: 000301   E061  ldi r22, 0x01 ; 1
   722: 000302   940E  call 0x2b8 ;  0x2b8
        000303   02B8
   723: 000304   5F0F  subi r16, 0xFF ; 255
   724: 000305   3006  cpi r16, 0x06 ; 6
   725: 000306   F401  brne .-68      ;  0x5ea
   726: 000307   E480  ldi r24, 0x40 ; 64
   727: 000308   B987  out 0x07, r24 ; 7
   728: 000309   E887  ldi r24, 0x87 ; 135
   729: 00030A   B986  out 0x06, r24 ; 6
   730: 00030B   E080  ldi r24, 0x00 ; 0
   731: 00030C   940E  call 0x28a ;  0x28a
        00030D   028A
   732: 00030E   940E  call 0xaee ;  0xaee
        00030F   0AEE
   733: 000310   9AB8  sbi 0x17, 0 ; 23
   734: 000311   E9E8  ldi r30, 0x98 ; 152
   735: 000312   E0F3  ldi r31, 0x03 ; 3
   736: 000313   C000  rjmp .+2       ;  0x64a
   737: 000314   9212  st -Z, r1
   738: 000315   E032  ldi r19, 0x02 ; 2
   739: 000316   39E8  cpi r30, 0x98 ; 152
   740: 000317   07F3  cpc r31, r19
   741: 000318   F401  brne .-10      ;  0x648
   742: 000319   E982  ldi r24, 0x92 ; 146
   743: 00031A   E090  ldi r25, 0x00 ; 0
   744: 00031B   940E  call 0x59a ;  0x59a
        00031C   059A
   745: 00031D   E181  ldi r24, 0x11 ; 17
   746: 00031E   940E  call 0x40a ;  0x40a
        00031F   040A
   747: 000320   E080  ldi r24, 0x00 ; 0
   748: 000321   E060  ldi r22, 0x00 ; 0
   749: 000322   940E  call 0x3f4 ;  0x3f4
        000323   03F4
   750: 000324   E080  ldi r24, 0x00 ; 0
   751: 000325   E091  ldi r25, 0x01 ; 1
   752: 000326   9390  sts 0x03A2, r25
        000327   03A2
   753: 000328   9380  sts 0x03A1, r24
        000329   03A1
   754: 00032A   2CE1  mov r14, r1
   755: 00032B   E0F1  ldi r31, 0x01 ; 1
   756: 00032C   2EFF  mov r15, r31
   757: 00032D   E1E0  ldi r30, 0x10 ; 16
   758: 00032E   2E8E  mov r8, r30
   759: 00032F   2C91  mov r9, r1
   760: 000330   24DD  eor r13, r13
   761: 000331   94D3  inc r13
   762: 000332   015E  movw r10, r28
   763: 000333   9408  sec
   764: 000334   1CA1  adc r10, r1
   765: 000335   1CB1  adc r11, r1
   766: 000336   E670  ldi r23, 0x60 ; 96
   767: 000337   2E67  mov r6, r23
   768: 000338   E070  ldi r23, 0x00 ; 0
   769: 000339   2E77  mov r7, r23
   770: 00033A   E66B  ldi r22, 0x6B ; 107
   771: 00033B   2E46  mov r4, r22
   772: 00033C   E060  ldi r22, 0x00 ; 0
   773: 00033D   2E56  mov r5, r22
   774: 00033E   E052  ldi r21, 0x02 ; 2
   775: 00033F   2E25  mov r2, r21
   776: 000340   2C31  mov r3, r1
   777: 000341   C000  rjmp .+460     ;  0x870
   778: 000342   0187  movw r16, r14
   779: 000343   1B02  sub r16, r18
   780: 000344   0B13  sbc r17, r19
   781: 000345   01C8  movw r24, r16
   782: 000346   01B4  movw r22, r8
   783: 000347   940E  call 0x994 ;  0x994
        000348   0994
   784: 000349   9390  sts 0x0399, r25
        00034A   0399
   785: 00034B   9380  sts 0x0398, r24
        00034C   0398
   786: 00034D   9180  lds r24, 0x0398
        00034E   0398
   787: 00034F   9190  lds r25, 0x0399
        000350   0399
   788: 000351   9700  sbiw r24, 0x00 ; 0
   789: 000352   F401  brne .+40      ;  0x6ee
   790: 000353   9180  lds r24, 0x039A
        000354   039A
   791: 000355   9190  lds r25, 0x039B
        000356   039B
   792: 000357   9601  adiw r24, 0x01 ; 1
   793: 000358   9390  sts 0x039B, r25
        000359   039B
   794: 00035A   9380  sts 0x039A, r24
        00035B   039A
   795: 00035C   9180  lds r24, 0x039A
        00035D   039A
   796: 00035E   9190  lds r25, 0x039B
        00035F   039B
   797: 000360   3180  cpi r24, 0x10 ; 16
   798: 000361   0591  cpc r25, r1
   799: 000362   F004  brlt .+8       ;  0x6ee
   800: 000363   9210  sts 0x039B, r1
        000364   039B
   801: 000365   9210  sts 0x039A, r1
        000366   039A
   802: 000367   9180  lds r24, 0x0398
        000368   0398
   803: 000369   9160  lds r22, 0x039A
        00036A   039A
   804: 00036B   940E  call 0x3f4 ;  0x3f4
        00036C   03F4
   805: 00036D   01F8  movw r30, r16
   806: 00036E   56E8  subi r30, 0x68 ; 104
   807: 00036F   4FFE  sbci r31, 0xFE ; 254
   808: 000370   8180  ld r24, Z
   809: 000371   2388  and r24, r24
   810: 000372   F001  breq .+12      ;  0x712
   811: 000373   9180  lds r24, 0x0398
        000374   0398
   812: 000375   9160  lds r22, 0x039A
        000376   039A
   813: 000377   E041  ldi r20, 0x01 ; 1
   814: 000378   C000  rjmp .+10      ;  0x71c
   815: 000379   9180  lds r24, 0x0398
        00037A   0398
   816: 00037B   9160  lds r22, 0x039A
        00037C   039A
   817: 00037D   E040  ldi r20, 0x00 ; 0
   818: 00037E   940E  call 0x366 ;  0x366
        00037F   0366
   819: 000380   9100  lds r16, 0x03A1
        000381   03A1
   820: 000382   9110  lds r17, 0x03A2
        000383   03A2
   821: 000384   01F8  movw r30, r16
   822: 000385   56E8  subi r30, 0x68 ; 104
   823: 000386   4FFE  sbci r31, 0xFE ; 254
   824: 000387   8180  ld r24, Z
   825: 000388   2388  and r24, r24
   826: 000389   F001  breq .+20      ;  0x748
   827: 00038A   01C8  movw r24, r16
   828: 00038B   940E  call 0x4a4 ;  0x4a4
        00038C   04A4
   829: 00038D   3082  cpi r24, 0x02 ; 2
   830: 00038E   0591  cpc r25, r1
   831: 00038F   F401  brne .+14      ;  0x74e
   832: 000390   01F8  movw r30, r16
   833: 000391   56E8  subi r30, 0x68 ; 104
   834: 000392   4FFD  sbci r31, 0xFD ; 253
   835: 000393   C000  rjmp .+18      ;  0x75a
   836: 000394   01C8  movw r24, r16
   837: 000395   940E  call 0x4a4 ;  0x4a4
        000396   04A4
   838: 000397   01F8  movw r30, r16
   839: 000398   56E8  subi r30, 0x68 ; 104
   840: 000399   4FFD  sbci r31, 0xFD ; 253
   841: 00039A   3083  cpi r24, 0x03 ; 3
   842: 00039B   0591  cpc r25, r1
   843: 00039C   F401  brne .+4       ;  0x75e
   844: 00039D   82D0  st Z, r13
   845: 00039E   C000  rjmp .+2       ;  0x760
   846: 00039F   8210  st Z, r1
   847: 0003A0   1501  cp r16, r1
   848: 0003A1   0511  cpc r17, r1
   849: 0003A2   F001  breq .+2       ;  0x768
   850: 0003A3   C000  rjmp .+264     ;  0x870
   851: 0003A4   E988  ldi r24, 0x98 ; 152
   852: 0003A5   E092  ldi r25, 0x02 ; 2
   853: 0003A6   940E  call 0x59a ;  0x59a
        0003A7   059A
   854: 0003A8   92F0  sts 0x03A2, r15
        0003A9   03A2
   855: 0003AA   92E0  sts 0x03A1, r14
        0003AB   03A1
   856: 0003AC   E908  ldi r16, 0x98 ; 152
   857: 0003AD   E011  ldi r17, 0x01 ; 1
   858: 0003AE   01F8  movw r30, r16
   859: 0003AF   E080  ldi r24, 0x00 ; 0
   860: 0003B0   9191  ld r25, Z+
   861: 0003B1   1191  cpse r25, r1
   862: 0003B2   5F8F  subi r24, 0xFF ; 255
   863: 0003B3   E092  ldi r25, 0x02 ; 2
   864: 0003B4   39E8  cpi r30, 0x98 ; 152
   865: 0003B5   07F9  cpc r31, r25
   866: 0003B6   F401  brne .-14      ;  0x780
   867: 0003B7   9380  sts 0x039C, r24
        0003B8   039C
   868: 0003B9   E081  ldi r24, 0x01 ; 1
   869: 0003BA   940E  call 0x28a ;  0x28a
        0003BB   028A
   870: 0003BC   E045  ldi r20, 0x05 ; 5
   871: 0003BD   9596  lsr r25
   872: 0003BE   9587  ror r24
   873: 0003BF   954A  dec r20
   874: 0003C0   F401  brne .-8       ;  0x79a
   875: 0003C1   940E  call 0x40a ;  0x40a
        0003C2   040A
   876: 0003C3   9120  lds r18, 0x039E
        0003C4   039E
   877: 0003C5   302F  cpi r18, 0x0F ; 15
   878: 0003C6   F001  breq .+20      ;  0x7c2
   879: 0003C7   9180  lds r24, 0x039F
        0003C8   039F
   880: 0003C9   9190  lds r25, 0x03A0
        0003CA   03A0
   881: 0003CB   E0A3  ldi r26, 0x03 ; 3
   882: 0003CC   3E89  cpi r24, 0xE9 ; 233
   883: 0003CD   079A  cpc r25, r26
   884: 0003CE   F404  brge .+4       ;  0x7c2
   885: 0003CF   9BB2  sbis 0x16, 2 ; 22
   886: 0003D0   C000  rjmp .+254     ;  0x8c0
   887: 0003D1   9210  sts 0x039E, r1
        0003D2   039E
   888: 0003D3   9210  sts 0x03A0, r1
        0003D4   03A0
   889: 0003D5   9210  sts 0x039F, r1
        0003D6   039F
   890: 0003D7   940E  call 0xae4 ;  0xae4
        0003D8   0AE4
   891: 0003D9   01B1  movw r22, r2
   892: 0003DA   940E  call 0x994 ;  0x994
        0003DB   0994
   893: 0003DC   E021  ldi r18, 0x01 ; 1
   894: 0003DD   9700  sbiw r24, 0x00 ; 0
   895: 0003DE   F401  brne .+2       ;  0x7e0
   896: 0003DF   E020  ldi r18, 0x00 ; 0
   897: 0003E0   01F8  movw r30, r16
   898: 0003E1   9321  st Z+, r18
   899: 0003E2   018F  movw r16, r30
   900: 0003E3   E0F2  ldi r31, 0x02 ; 2
   901: 0003E4   3908  cpi r16, 0x98 ; 152
   902: 0003E5   071F  cpc r17, r31
   903: 0003E6   F401  brne .-32      ;  0x7ce
   904: 0003E7   C000  rjmp .+30      ;  0x80e
   905: 0003E8   9AC0  sbi 0x18, 0 ; 24
   906: 0003E9   5F2F  subi r18, 0xFF ; 255
   907: 0003EA   9320  sts 0x039E, r18
        0003EB   039E
   908: 0003EC   C000  rjmp .+20      ;  0x80e
   909: 0003ED   98C0  cbi 0x18, 0 ; 24
   910: 0003EE   9330  sts 0x039D, r19
        0003EF   039D
   911: 0003F0   9601  adiw r24, 0x01 ; 1
   912: 0003F1   9390  sts 0x03A0, r25
        0003F2   03A0
   913: 0003F3   9380  sts 0x039F, r24
        0003F4   039F
   914: 0003F5   9210  sts 0x039E, r1
        0003F6   039E
   915: 0003F7   E080  ldi r24, 0x00 ; 0
   916: 0003F8   E065  ldi r22, 0x05 ; 5
   917: 0003F9   940E  call 0x3f4 ;  0x3f4
        0003FA   03F4
   918: 0003FB   B78D  in r24, 0x3d ; 61
   919: 0003FC   B79E  in r25, 0x3e ; 62
   920: 0003FD   970A  sbiw r24, 0x0a ; 10
   921: 0003FE   B60F  in r0, 0x3f ; 63
   922: 0003FF   94F8  cli
   923: 000400   BF9E  out 0x3e, r25 ; 62
   924: 000401   BE0F  out 0x3f, r0 ; 63
   925: 000402   BF8D  out 0x3d, r24 ; 61
   926: 000403   B7ED  in r30, 0x3d ; 61
   927: 000404   B7FE  in r31, 0x3e ; 62
   928: 000405   9631  adiw r30, 0x01 ; 1
   929: 000406   B7AD  in r26, 0x3d ; 61
   930: 000407   B7BE  in r27, 0x3e ; 62
   931: 000408   9612  adiw r26, 0x02 ; 2
   932: 000409   92BC  st X, r11
   933: 00040A   92AE  st -X, r10
   934: 00040B   9711  sbiw r26, 0x01 ; 1
   935: 00040C   8273  std Z+3, r7 ; 0x03
   936: 00040D   8262  std Z+2, r6 ; 0x02
   937: 00040E   8255  std Z+5, r5 ; 0x05
   938: 00040F   8244  std Z+4, r4 ; 0x04
   939: 000410   9180  lds r24, 0x039F
        000411   039F
   940: 000412   9190  lds r25, 0x03A0
        000413   03A0
   941: 000414   8397  std Z+7, r25 ; 0x07
   942: 000415   8386  std Z+6, r24 ; 0x06
   943: 000416   9180  lds r24, 0x039E
        000417   039E
   944: 000418   E090  ldi r25, 0x00 ; 0
   945: 000419   8791  std Z+9, r25 ; 0x09
   946: 00041A   8780  std Z+8, r24 ; 0x08
   947: 00041B   940E  call 0xb04 ;  0xb04
        00041C   0B04
   948: 00041D   B7ED  in r30, 0x3d ; 61
   949: 00041E   B7FE  in r31, 0x3e ; 62
   950: 00041F   963A  adiw r30, 0x0a ; 10
   951: 000420   B60F  in r0, 0x3f ; 63
   952: 000421   94F8  cli
   953: 000422   BFFE  out 0x3e, r31 ; 62
   954: 000423   BE0F  out 0x3f, r0 ; 63
   955: 000424   BFED  out 0x3d, r30 ; 61
   956: 000425   01C5  movw r24, r10
   957: 000426   940E  call 0x414 ;  0x414
        000427   0414
   958: 000428   9180  lds r24, 0x03A1
        000429   03A1
   959: 00042A   9190  lds r25, 0x03A2
        00042B   03A2
   960: 00042C   019C  movw r18, r24
   961: 00042D   5021  subi r18, 0x01 ; 1
   962: 00042E   4030  sbci r19, 0x00 ; 0
   963: 00042F   9330  sts 0x03A2, r19
        000430   03A2
   964: 000431   9320  sts 0x03A1, r18
        000432   03A1
   965: 000433   9700  sbiw r24, 0x00 ; 0
   966: 000434   F001  breq .+2       ;  0x88c
   967: 000435   C000  rjmp .-488     ;  0x6a4
   968: 000436   E080  ldi r24, 0x00 ; 0
   969: 000437   E090  ldi r25, 0x00 ; 0
   970: 000438   9665  adiw r28, 0x15 ; 21
   971: 000439   B60F  in r0, 0x3f ; 63
   972: 00043A   94F8  cli
   973: 00043B   BFDE  out 0x3e, r29 ; 62
   974: 00043C   BE0F  out 0x3f, r0 ; 63
   975: 00043D   BFCD  out 0x3d, r28 ; 61
   976: 00043E   91CF  pop r28
   977: 00043F   91DF  pop r29
   978: 000440   911F  pop r17
   979: 000441   910F  pop r16
   980: 000442   90FF  pop r15
   981: 000443   90EF  pop r14
   982: 000444   90DF  pop r13
   983: 000445   90BF  pop r11
   984: 000446   90AF  pop r10
   985: 000447   909F  pop r9
   986: 000448   908F  pop r8
   987: 000449   907F  pop r7
   988: 00044A   906F  pop r6
   989: 00044B   905F  pop r5
   990: 00044C   904F  pop r4
   991: 00044D   903F  pop r3
   992: 00044E   902F  pop r2
   993: 00044F   9508  ret
   994: 000450   9130  lds r19, 0x039C
        000451   039C
   995: 000452   9140  lds r20, 0x039D
        000453   039D
   996: 000454   1734  cp r19, r20
   997: 000455   F001  breq .+2       ;  0x8ce
   998: 000456   C000  rjmp .-212     ;  0x7fa
   999: 000457   C000  rjmp .-224     ;  0x7f0
  1000: 000458   93CF  push r28
  1001: 000459   93DF  push r29
  1002: 00045A   B381  in r24, 0x11 ; 17
  1003: 00045B   6780  ori r24, 0x70 ; 112
  1004: 00045C   BB81  out 0x11, r24 ; 17
  1005: 00045D   EF8F  ldi r24, 0xFF ; 255
  1006: 00045E   BB84  out 0x14, r24 ; 20
  1007: 00045F   EF8F  ldi r24, 0xFF ; 255
  1008: 000460   E790  ldi r25, 0x70 ; 112
  1009: 000461   E0A2  ldi r26, 0x02 ; 2
  1010: 000462   5081  subi r24, 0x01 ; 1
  1011: 000463   4090  sbci r25, 0x00 ; 0
  1012: 000464   40A0  sbci r26, 0x00 ; 0
  1013: 000465   F401  brne .-8       ;  0x8e4
  1014: 000466   C000  rjmp .+0       ;  0x8ee
  1015: 000467   0000  nop
  1016: 000468   EE82  ldi r24, 0xE2 ; 226
  1017: 000469   E060  ldi r22, 0x00 ; 0
  1018: 00046A   940E  call 0x2b8 ;  0x2b8
        00046B   02B8
  1019: 00046C   EF8F  ldi r24, 0xFF ; 255
  1020: 00046D   E699  ldi r25, 0x69 ; 105
  1021: 00046E   E1A8  ldi r26, 0x18 ; 24
  1022: 00046F   5081  subi r24, 0x01 ; 1
  1023: 000470   4090  sbci r25, 0x00 ; 0
  1024: 000471   40A0  sbci r26, 0x00 ; 0
  1025: 000472   F401  brne .-8       ;  0x8fe
  1026: 000473   C000  rjmp .+0       ;  0x908
  1027: 000474   0000  nop
  1028: 000475   EA81  ldi r24, 0xA1 ; 161
  1029: 000476   E060  ldi r22, 0x00 ; 0
  1030: 000477   940E  call 0x2b8 ;  0x2b8
        000478   02B8
  1031: 000479   EA82  ldi r24, 0xA2 ; 162
  1032: 00047A   E060  ldi r22, 0x00 ; 0
  1033: 00047B   940E  call 0x2b8 ;  0x2b8
        00047C   02B8
  1034: 00047D   E28C  ldi r24, 0x2C ; 44
  1035: 00047E   E060  ldi r22, 0x00 ; 0
  1036: 00047F   940E  call 0x2b8 ;  0x2b8
        000480   02B8
  1037: 000481   E28E  ldi r24, 0x2E ; 46
  1038: 000482   E060  ldi r22, 0x00 ; 0
  1039: 000483   940E  call 0x2b8 ;  0x2b8
        000484   02B8
  1040: 000485   E28F  ldi r24, 0x2F ; 47
  1041: 000486   E060  ldi r22, 0x00 ; 0
  1042: 000487   940E  call 0x2b8 ;  0x2b8
        000488   02B8
  1043: 000489   EA86  ldi r24, 0xA6 ; 166
  1044: 00048A   E060  ldi r22, 0x00 ; 0
  1045: 00048B   940E  call 0x2b8 ;  0x2b8
        00048C   02B8
  1046: 00048D   E88F  ldi r24, 0x8F ; 143
  1047: 00048E   E060  ldi r22, 0x00 ; 0
  1048: 00048F   940E  call 0x2b8 ;  0x2b8
        000490   02B8
  1049: 000491   EA84  ldi r24, 0xA4 ; 164
  1050: 000492   E060  ldi r22, 0x00 ; 0
  1051: 000493   940E  call 0x2b8 ;  0x2b8
        000494   02B8
  1052: 000495   EA8F  ldi r24, 0xAF ; 175
  1053: 000496   E060  ldi r22, 0x00 ; 0
  1054: 000497   940E  call 0x2b8 ;  0x2b8
        000498   02B8
  1055: 000499   E480  ldi r24, 0x40 ; 64
  1056: 00049A   E060  ldi r22, 0x00 ; 0
  1057: 00049B   940E  call 0x2b8 ;  0x2b8
        00049C   02B8
  1058: 00049D   E080  ldi r24, 0x00 ; 0
  1059: 00049E   E060  ldi r22, 0x00 ; 0
  1060: 00049F   940E  call 0x3f4 ;  0x3f4
        0004A0   03F4
  1061: 0004A1   E0C0  ldi r28, 0x00 ; 0
  1062: 0004A2   E0D0  ldi r29, 0x00 ; 0
  1063: 0004A3   2F8C  mov r24, r28
  1064: 0004A4   940E  call 0x300 ;  0x300
        0004A5   0300
  1065: 0004A6   E789  ldi r24, 0x79 ; 121
  1066: 0004A7   E090  ldi r25, 0x00 ; 0
  1067: 0004A8   940E  call 0x414 ;  0x414
        0004A9   0414
  1068: 0004AA   9621  adiw r28, 0x01 ; 1
  1069: 0004AB   30C6  cpi r28, 0x06 ; 6
  1070: 0004AC   05D1  cpc r29, r1
  1071: 0004AD   F401  brne .-22      ;  0x966
  1072: 0004AE   EF8F  ldi r24, 0xFF ; 255
  1073: 0004AF   E790  ldi r25, 0x70 ; 112
  1074: 0004B0   E0A2  ldi r26, 0x02 ; 2
  1075: 0004B1   5081  subi r24, 0x01 ; 1
  1076: 0004B2   4090  sbci r25, 0x00 ; 0
  1077: 0004B3   40A0  sbci r26, 0x00 ; 0
  1078: 0004B4   F401  brne .-8       ;  0x982
  1079: 0004B5   C000  rjmp .+0       ;  0x98c
  1080: 0004B6   0000  nop
  1081: 0004B7   91DF  pop r29
  1082: 0004B8   91CF  pop r28
  1083: 0004B9   9508  ret
  1084: 0004BA   FB97  bst r25, 7
  1085: 0004BB   2E09  mov r0, r25
  1086: 0004BC   2607  eor r0, r23
  1087: 0004BD   D000  rcall .+20      ;  0x9b0
  1088: 0004BE   FD77  sbrc r23, 7
  1089: 0004BF   D000  rcall .+8       ;  0x9a8
  1090: 0004C0   D000  rcall .+134     ;  0xa28
  1091: 0004C1   D000  rcall .+12      ;  0x9b0
  1092: 0004C2   2000  and r0, r0
  1093: 0004C3   F402  brpl .+6       ;  0x9ae
  1094: 0004C4   9570  com r23
  1095: 0004C5   9561  neg r22
  1096: 0004C6   4F7F  sbci r23, 0xFF ; 255
  1097: 0004C7   9508  ret
  1098: 0004C8   F406  brtc .-4       ;  0x9ae
  1099: 0004C9   9590  com r25
  1100: 0004CA   9581  neg r24
  1101: 0004CB   4F9F  sbci r25, 0xFF ; 255
  1102: 0004CC   9508  ret
  1103: 0004CD   922F  push r2
  1104: 0004CE   923F  push r3
  1105: 0004CF   924F  push r4
  1106: 0004D0   925F  push r5
  1107: 0004D1   926F  push r6
  1108: 0004D2   927F  push r7
  1109: 0004D3   928F  push r8
  1110: 0004D4   929F  push r9
  1111: 0004D5   92AF  push r10
  1112: 0004D6   92BF  push r11
  1113: 0004D7   92CF  push r12
  1114: 0004D8   92DF  push r13
  1115: 0004D9   92EF  push r14
  1116: 0004DA   92FF  push r15
  1117: 0004DB   930F  push r16
  1118: 0004DC   931F  push r17
  1119: 0004DD   93CF  push r28
  1120: 0004DE   93DF  push r29
  1121: 0004DF   B7CD  in r28, 0x3d ; 61
  1122: 0004E0   B7DE  in r29, 0x3e ; 62
  1123: 0004E1   1BCA  sub r28, r26
  1124: 0004E2   0BDB  sbc r29, r27
  1125: 0004E3   B60F  in r0, 0x3f ; 63
  1126: 0004E4   94F8  cli
  1127: 0004E5   BFDE  out 0x3e, r29 ; 62
  1128: 0004E6   BE0F  out 0x3f, r0 ; 63
  1129: 0004E7   BFCD  out 0x3d, r28 ; 61
  1130: 0004E8   9409  ijmp
  1131: 0004E9   882A  ldd r2, Y+18 ; 0x12
  1132: 0004EA   8839  ldd r3, Y+17 ; 0x11
  1133: 0004EB   8848  ldd r4, Y+16 ; 0x10
  1134: 0004EC   845F  ldd r5, Y+15 ; 0x0f
  1135: 0004ED   846E  ldd r6, Y+14 ; 0x0e
  1136: 0004EE   847D  ldd r7, Y+13 ; 0x0d
  1137: 0004EF   848C  ldd r8, Y+12 ; 0x0c
  1138: 0004F0   849B  ldd r9, Y+11 ; 0x0b
  1139: 0004F1   84AA  ldd r10, Y+10 ; 0x0a
  1140: 0004F2   84B9  ldd r11, Y+9 ; 0x09
  1141: 0004F3   84C8  ldd r12, Y+8 ; 0x08
  1142: 0004F4   80DF  ldd r13, Y+7 ; 0x07
  1143: 0004F5   80EE  ldd r14, Y+6 ; 0x06
  1144: 0004F6   80FD  ldd r15, Y+5 ; 0x05
  1145: 0004F7   810C  ldd r16, Y+4 ; 0x04
  1146: 0004F8   811B  ldd r17, Y+3 ; 0x03
  1147: 0004F9   81AA  ldd r26, Y+2 ; 0x02
  1148: 0004FA   81B9  ldd r27, Y+1 ; 0x01
  1149: 0004FB   0FCE  add r28, r30
  1150: 0004FC   1DD1  adc r29, r1
  1151: 0004FD   B60F  in r0, 0x3f ; 63
  1152: 0004FE   94F8  cli
  1153: 0004FF   BFDE  out 0x3e, r29 ; 62
  1154: 000500   BE0F  out 0x3f, r0 ; 63
  1155: 000501   BFCD  out 0x3d, r28 ; 61
  1156: 000502   01ED  movw r28, r26
  1157: 000503   9508  ret
  1158: 000504   1BAA  sub r26, r26
  1159: 000505   1BBB  sub r27, r27
  1160: 000506   E151  ldi r21, 0x11 ; 17
  1161: 000507   C000  rjmp .+14      ;  0xa3e
  1162: 000508   1FAA  adc r26, r26
  1163: 000509   1FBB  adc r27, r27
  1164: 00050A   17A6  cp r26, r22
  1165: 00050B   07B7  cpc r27, r23
  1166: 00050C   F000  brcs .+4       ;  0xa3e
  1167: 00050D   1BA6  sub r26, r22
  1168: 00050E   0BB7  sbc r27, r23
  1169: 00050F   1F88  adc r24, r24
  1170: 000510   1F99  adc r25, r25
  1171: 000511   955A  dec r21
  1172: 000512   F401  brne .-22      ;  0xa30
  1173: 000513   9580  com r24
  1174: 000514   9590  com r25
  1175: 000515   01BC  movw r22, r24
  1176: 000516   01CD  movw r24, r26
  1177: 000517   9508  ret
  1178: 000518   0FEE  add r30, r30
  1179: 000519   1FFF  adc r31, r31
  1180: 00051A   9005  lpm r0, Z+
  1181: 00051B   91F5  lpm r31, Z+
  1182: 00051C   2DE0  mov r30, r0
  1183: 00051D   9409  ijmp
  1184: 00051E   E0A0  ldi r26, 0x00 ; 0
  1185: 00051F   E0B0  ldi r27, 0x00 ; 0
  1186: 000520   E3E4  ldi r30, 0x34 ; 52
  1187: 000521   E0F5  ldi r31, 0x05 ; 5
  1188: 000522   940C  jmp 0x9ca ;  0x9ca
        000523   09CA
  1189: 000524   01EC  movw r28, r24
  1190: 000525   8168  ld r22, Y
  1191: 000526   8179  ldd r23, Y+1 ; 0x01
  1192: 000527   818A  ldd r24, Y+2 ; 0x02
  1193: 000528   819B  ldd r25, Y+3 ; 0x03
  1194: 000529   1561  cp r22, r1
  1195: 00052A   0571  cpc r23, r1
  1196: 00052B   0581  cpc r24, r1
  1197: 00052C   0591  cpc r25, r1
  1198: 00052D   F401  brne .+8       ;  0xa84
  1199: 00052E   E264  ldi r22, 0x24 ; 36
  1200: 00052F   ED79  ldi r23, 0xD9 ; 217
  1201: 000530   E58B  ldi r24, 0x5B ; 91
  1202: 000531   E097  ldi r25, 0x07 ; 7
  1203: 000532   E12D  ldi r18, 0x1D ; 29
  1204: 000533   EF33  ldi r19, 0xF3 ; 243
  1205: 000534   E041  ldi r20, 0x01 ; 1
  1206: 000535   E050  ldi r21, 0x00 ; 0
  1207: 000536   940E  call 0x1096 ;  0x1096
        000537   1096
  1208: 000538   0179  movw r14, r18
  1209: 000539   018A  movw r16, r20
  1210: 00053A   EA27  ldi r18, 0xA7 ; 167
  1211: 00053B   E431  ldi r19, 0x41 ; 65
  1212: 00053C   E040  ldi r20, 0x00 ; 0
  1213: 00053D   E050  ldi r21, 0x00 ; 0
  1214: 00053E   940E  call 0x1058 ;  0x1058
        00053F   1058
  1215: 000540   015B  movw r10, r22
  1216: 000541   016C  movw r12, r24
  1217: 000542   01C8  movw r24, r16
  1218: 000543   01B7  movw r22, r14
  1219: 000544   EE2C  ldi r18, 0xEC ; 236
  1220: 000545   EF34  ldi r19, 0xF4 ; 244
  1221: 000546   EF4F  ldi r20, 0xFF ; 255
  1222: 000547   EF5F  ldi r21, 0xFF ; 255
  1223: 000548   940E  call 0x1058 ;  0x1058
        000549   1058
  1224: 00054A   0D6A  add r22, r10
  1225: 00054B   1D7B  adc r23, r11
  1226: 00054C   1D8C  adc r24, r12
  1227: 00054D   1D9D  adc r25, r13
  1228: 00054E   FF97  sbrs r25, 7
  1229: 00054F   C000  rjmp .+8       ;  0xac8
  1230: 000550   5061  subi r22, 0x01 ; 1
  1231: 000551   4070  sbci r23, 0x00 ; 0
  1232: 000552   4080  sbci r24, 0x00 ; 0
  1233: 000553   4890  sbci r25, 0x80 ; 128
  1234: 000554   8368  st Y, r22
  1235: 000555   8379  std Y+1, r23 ; 0x01
  1236: 000556   838A  std Y+2, r24 ; 0x02
  1237: 000557   839B  std Y+3, r25 ; 0x03
  1238: 000558   777F  andi r23, 0x7F ; 127
  1239: 000559   01CB  movw r24, r22
  1240: 00055A   B7CD  in r28, 0x3d ; 61
  1241: 00055B   B7DE  in r29, 0x3e ; 62
  1242: 00055C   E0EA  ldi r30, 0x0A ; 10
  1243: 00055D   940C  jmp 0xa02 ;  0xa02
        00055E   0A02
  1244: 00055F   940E  call 0xa5c ;  0xa5c
        000560   0A5C
  1245: 000561   9508  ret
  1246: 000562   E88E  ldi r24, 0x8E ; 142
  1247: 000563   E090  ldi r25, 0x00 ; 0
  1248: 000564   940E  call 0xa5c ;  0xa5c
        000565   0A5C
  1249: 000566   9508  ret
  1250: 000567   E0A0  ldi r26, 0x00 ; 0
  1251: 000568   E0B0  ldi r27, 0x00 ; 0
  1252: 000569   9380  sts 0x008E, r24
        00056A   008E
  1253: 00056B   9390  sts 0x008F, r25
        00056C   008F
  1254: 00056D   93A0  sts 0x0090, r26
        00056E   0090
  1255: 00056F   93B0  sts 0x0091, r27
        000570   0091
  1256: 000571   9508  ret
  1257: 000572   E0AE  ldi r26, 0x0E ; 14
  1258: 000573   E0B0  ldi r27, 0x00 ; 0
  1259: 000574   E8E8  ldi r30, 0x88 ; 136
  1260: 000575   E0F5  ldi r31, 0x05 ; 5
  1261: 000576   940C  jmp 0x9d6 ;  0x9d6
        000577   09D6
  1262: 000578   890D  ldd r16, Y+21 ; 0x15
  1263: 000579   891E  ldd r17, Y+22 ; 0x16
  1264: 00057A   E086  ldi r24, 0x06 ; 6
  1265: 00057B   838C  std Y+4, r24 ; 0x04
  1266: 00057C   831A  std Y+2, r17 ; 0x02
  1267: 00057D   8309  std Y+1, r16 ; 0x01
  1268: 00057E   EF8F  ldi r24, 0xFF ; 255
  1269: 00057F   E79F  ldi r25, 0x7F ; 127
  1270: 000580   839E  std Y+6, r25 ; 0x06
  1271: 000581   838D  std Y+5, r24 ; 0x05
  1272: 000582   019E  movw r18, r28
  1273: 000583   5E27  subi r18, 0xE7 ; 231
  1274: 000584   4F3F  sbci r19, 0xFF ; 255
  1275: 000585   01CE  movw r24, r28
  1276: 000586   9601  adiw r24, 0x01 ; 1
  1277: 000587   896F  ldd r22, Y+23 ; 0x17
  1278: 000588   8D78  ldd r23, Y+24 ; 0x18
  1279: 000589   01A9  movw r20, r18
  1280: 00058A   940E  call 0xb4a ;  0xb4a
        00058B   0B4A
  1281: 00058C   81EF  ldd r30, Y+7 ; 0x07
  1282: 00058D   85F8  ldd r31, Y+8 ; 0x08
  1283: 00058E   0FE0  add r30, r16
  1284: 00058F   1FF1  adc r31, r17
  1285: 000590   8210  st Z, r1
  1286: 000591   962E  adiw r28, 0x0e ; 14
  1287: 000592   E0E4  ldi r30, 0x04 ; 4
  1288: 000593   940C  jmp 0xa0e ;  0xa0e
        000594   0A0E
  1289: 000595   E0AC  ldi r26, 0x0C ; 12
  1290: 000596   E0B0  ldi r27, 0x00 ; 0
  1291: 000597   EAEB  ldi r30, 0xAB ; 171
  1292: 000598   E0F5  ldi r31, 0x05 ; 5
  1293: 000599   940C  jmp 0x9ba ;  0x9ba
        00059A   09BA
  1294: 00059B   016C  movw r12, r24
  1295: 00059C   011B  movw r2, r22
  1296: 00059D   018A  movw r16, r20
  1297: 00059E   01FC  movw r30, r24
  1298: 00059F   8217  std Z+7, r1 ; 0x07
  1299: 0005A0   8216  std Z+6, r1 ; 0x06
  1300: 0005A1   8183  ldd r24, Z+3 ; 0x03
  1301: 0005A2   FF81  sbrs r24, 1
  1302: 0005A3   C000  rjmp .+930     ;  0xf0a
  1303: 0005A4   012E  movw r4, r28
  1304: 0005A5   9408  sec
  1305: 0005A6   1C41  adc r4, r1
  1306: 0005A7   1C51  adc r5, r1
  1307: 0005A8   01F6  movw r30, r12
  1308: 0005A9   8193  ldd r25, Z+3 ; 0x03
  1309: 0005AA   01F1  movw r30, r2
  1310: 0005AB   FD93  sbrc r25, 3
  1311: 0005AC   9185  lpm r24, Z+
  1312: 0005AD   FF93  sbrs r25, 3
  1313: 0005AE   9181  ld r24, Z+
  1314: 0005AF   011F  movw r2, r30
  1315: 0005B0   2388  and r24, r24
  1316: 0005B1   F401  brne .+2       ;  0xb86
  1317: 0005B2   C000  rjmp .+892     ;  0xf02
  1318: 0005B3   3285  cpi r24, 0x25 ; 37
  1319: 0005B4   F401  brne .+14      ;  0xb98
  1320: 0005B5   FD93  sbrc r25, 3
  1321: 0005B6   9185  lpm r24, Z+
  1322: 0005B7   FF93  sbrs r25, 3
  1323: 0005B8   9181  ld r24, Z+
  1324: 0005B9   011F  movw r2, r30
  1325: 0005BA   3285  cpi r24, 0x25 ; 37
  1326: 0005BB   F401  brne .+10      ;  0xba2
  1327: 0005BC   E090  ldi r25, 0x00 ; 0
  1328: 0005BD   01B6  movw r22, r12
  1329: 0005BE   940E  call 0xf44 ;  0xf44
        0005BF   0F44
  1330: 0005C0   C000  rjmp .-50      ;  0xb70
  1331: 0005C1   24EE  eor r14, r14
  1332: 0005C2   24FF  eor r15, r15
  1333: 0005C3   E020  ldi r18, 0x00 ; 0
  1334: 0005C4   3220  cpi r18, 0x20 ; 32
  1335: 0005C5   F400  brcc .+44      ;  0xbd8
  1336: 0005C6   328B  cpi r24, 0x2B ; 43
  1337: 0005C7   F001  breq .+26      ;  0xbca
  1338: 0005C8   328C  cpi r24, 0x2C ; 44
  1339: 0005C9   F400  brcc .+10      ;  0xbbe
  1340: 0005CA   3280  cpi r24, 0x20 ; 32
  1341: 0005CB   F001  breq .+20      ;  0xbcc
  1342: 0005CC   3283  cpi r24, 0x23 ; 35
  1343: 0005CD   F401  brne .+28      ;  0xbd8
  1344: 0005CE   C000  rjmp .+22      ;  0xbd4
  1345: 0005CF   328D  cpi r24, 0x2D ; 45
  1346: 0005D0   F001  breq .+14      ;  0xbd0
  1347: 0005D1   3380  cpi r24, 0x30 ; 48
  1348: 0005D2   F401  brne .+18      ;  0xbd8
  1349: 0005D3   6021  ori r18, 0x01 ; 1
  1350: 0005D4   C000  rjmp .+88      ;  0xc22
  1351: 0005D5   6022  ori r18, 0x02 ; 2
  1352: 0005D6   6024  ori r18, 0x04 ; 4
  1353: 0005D7   C000  rjmp .+82      ;  0xc22
  1354: 0005D8   6028  ori r18, 0x08 ; 8
  1355: 0005D9   C000  rjmp .+78      ;  0xc22
  1356: 0005DA   6120  ori r18, 0x10 ; 16
  1357: 0005DB   C000  rjmp .+74      ;  0xc22
  1358: 0005DC   FD27  sbrc r18, 7
  1359: 0005DD   C000  rjmp .+88      ;  0xc34
  1360: 0005DE   2F38  mov r19, r24
  1361: 0005DF   5330  subi r19, 0x30 ; 48
  1362: 0005E0   303A  cpi r19, 0x0A ; 10
  1363: 0005E1   F400  brcc .+38      ;  0xc0a
  1364: 0005E2   FF26  sbrs r18, 6
  1365: 0005E3   C000  rjmp .+16      ;  0xbf8
  1366: 0005E4   2D8E  mov r24, r14
  1367: 0005E5   0F88  add r24, r24
  1368: 0005E6   2EE8  mov r14, r24
  1369: 0005E7   0CEE  add r14, r14
  1370: 0005E8   0CEE  add r14, r14
  1371: 0005E9   0EE8  add r14, r24
  1372: 0005EA   0EE3  add r14, r19
  1373: 0005EB   C000  rjmp .+42      ;  0xc22
  1374: 0005EC   2D8F  mov r24, r15
  1375: 0005ED   0F88  add r24, r24
  1376: 0005EE   2EF8  mov r15, r24
  1377: 0005EF   0CFF  add r15, r15
  1378: 0005F0   0CFF  add r15, r15
  1379: 0005F1   0EF8  add r15, r24
  1380: 0005F2   0EF3  add r15, r19
  1381: 0005F3   6220  ori r18, 0x20 ; 32
  1382: 0005F4   C000  rjmp .+24      ;  0xc22
  1383: 0005F5   328E  cpi r24, 0x2E ; 46
  1384: 0005F6   F401  brne .+8       ;  0xc16
  1385: 0005F7   FD26  sbrc r18, 6
  1386: 0005F8   C000  rjmp .+752     ;  0xf02
  1387: 0005F9   6420  ori r18, 0x40 ; 64
  1388: 0005FA   C000  rjmp .+12      ;  0xc22
  1389: 0005FB   368C  cpi r24, 0x6C ; 108
  1390: 0005FC   F401  brne .+4       ;  0xc1e
  1391: 0005FD   6820  ori r18, 0x80 ; 128
  1392: 0005FE   C000  rjmp .+4       ;  0xc22
  1393: 0005FF   3688  cpi r24, 0x68 ; 104
  1394: 000600   F401  brne .+18      ;  0xc34
  1395: 000601   01F1  movw r30, r2
  1396: 000602   FD93  sbrc r25, 3
  1397: 000603   9185  lpm r24, Z+
  1398: 000604   FF93  sbrs r25, 3
  1399: 000605   9181  ld r24, Z+
  1400: 000606   011F  movw r2, r30
  1401: 000607   2388  and r24, r24
  1402: 000608   F001  breq .+2       ;  0xc34
  1403: 000609   C000  rjmp .-140     ;  0xba8
  1404: 00060A   2F98  mov r25, r24
  1405: 00060B   5495  subi r25, 0x45 ; 69
  1406: 00060C   3093  cpi r25, 0x03 ; 3
  1407: 00060D   F000  brcs .+6       ;  0xc42
  1408: 00060E   5290  subi r25, 0x20 ; 32
  1409: 00060F   3093  cpi r25, 0x03 ; 3
  1410: 000610   F400  brcc .+10      ;  0xc4c
  1411: 000611   5F0C  subi r16, 0xFC ; 252
  1412: 000612   4F1F  sbci r17, 0xFF ; 255
  1413: 000613   E3FF  ldi r31, 0x3F ; 63
  1414: 000614   83F9  std Y+1, r31 ; 0x01
  1415: 000615   C000  rjmp .+26      ;  0xc66
  1416: 000616   3683  cpi r24, 0x63 ; 99
  1417: 000617   F001  breq .+12      ;  0xc5c
  1418: 000618   3783  cpi r24, 0x73 ; 115
  1419: 000619   F001  breq .+28      ;  0xc70
  1420: 00061A   3583  cpi r24, 0x53 ; 83
  1421: 00061B   F001  breq .+2       ;  0xc5a
  1422: 00061C   C000  rjmp .+192     ;  0xd1a
  1423: 00061D   C000  rjmp .+68      ;  0xca0
  1424: 00061E   01F8  movw r30, r16
  1425: 00061F   8180  ld r24, Z
  1426: 000620   8389  std Y+1, r24 ; 0x01
  1427: 000621   5F0E  subi r16, 0xFE ; 254
  1428: 000622   4F1F  sbci r17, 0xFF ; 255
  1429: 000623   0142  movw r8, r4
  1430: 000624   E071  ldi r23, 0x01 ; 1
  1431: 000625   2EA7  mov r10, r23
  1432: 000626   2CB1  mov r11, r1
  1433: 000627   C000  rjmp .+44      ;  0xc9c
  1434: 000628   E062  ldi r22, 0x02 ; 2
  1435: 000629   2E66  mov r6, r22
  1436: 00062A   2C71  mov r7, r1
  1437: 00062B   0E60  add r6, r16
  1438: 00062C   1E71  adc r7, r17
  1439: 00062D   01F8  movw r30, r16
  1440: 00062E   8080  ld r8, Z
  1441: 00062F   8091  ldd r9, Z+1 ; 0x01
  1442: 000630   FF26  sbrs r18, 6
  1443: 000631   C000  rjmp .+6       ;  0xc8a
  1444: 000632   2D6E  mov r22, r14
  1445: 000633   E070  ldi r23, 0x00 ; 0
  1446: 000634   C000  rjmp .+4       ;  0xc8e
  1447: 000635   EF6F  ldi r22, 0xFF ; 255
  1448: 000636   EF7F  ldi r23, 0xFF ; 255
  1449: 000637   01C4  movw r24, r8
  1450: 000638   872C  std Y+12, r18 ; 0x0c
  1451: 000639   940E  call 0xf2e ;  0xf2e
        00063A   0F2E
  1452: 00063B   015C  movw r10, r24
  1453: 00063C   0183  movw r16, r6
  1454: 00063D   852C  ldd r18, Y+12 ; 0x0c
  1455: 00063E   772F  andi r18, 0x7F ; 127
  1456: 00063F   C000  rjmp .+46      ;  0xcce
  1457: 000640   E052  ldi r21, 0x02 ; 2
  1458: 000641   2E65  mov r6, r21
  1459: 000642   2C71  mov r7, r1
  1460: 000643   0E60  add r6, r16
  1461: 000644   1E71  adc r7, r17
  1462: 000645   01F8  movw r30, r16
  1463: 000646   8080  ld r8, Z
  1464: 000647   8091  ldd r9, Z+1 ; 0x01
  1465: 000648   FF26  sbrs r18, 6
  1466: 000649   C000  rjmp .+6       ;  0xcba
  1467: 00064A   2D6E  mov r22, r14
  1468: 00064B   E070  ldi r23, 0x00 ; 0
  1469: 00064C   C000  rjmp .+4       ;  0xcbe
  1470: 00064D   EF6F  ldi r22, 0xFF ; 255
  1471: 00064E   EF7F  ldi r23, 0xFF ; 255
  1472: 00064F   01C4  movw r24, r8
  1473: 000650   872C  std Y+12, r18 ; 0x0c
  1474: 000651   940E  call 0xf18 ;  0xf18
        000652   0F18
  1475: 000653   015C  movw r10, r24
  1476: 000654   852C  ldd r18, Y+12 ; 0x0c
  1477: 000655   6820  ori r18, 0x80 ; 128
  1478: 000656   0183  movw r16, r6
  1479: 000657   FD23  sbrc r18, 3
  1480: 000658   C000  rjmp .+64      ;  0xd12
  1481: 000659   C000  rjmp .+16      ;  0xce4
  1482: 00065A   E280  ldi r24, 0x20 ; 32
  1483: 00065B   E090  ldi r25, 0x00 ; 0
  1484: 00065C   01B6  movw r22, r12
  1485: 00065D   872C  std Y+12, r18 ; 0x0c
  1486: 00065E   940E  call 0xf44 ;  0xf44
        00065F   0F44
  1487: 000660   94FA  dec r15
  1488: 000661   852C  ldd r18, Y+12 ; 0x0c
  1489: 000662   2D8F  mov r24, r15
  1490: 000663   E090  ldi r25, 0x00 ; 0
  1491: 000664   16A8  cp r10, r24
  1492: 000665   06B9  cpc r11, r25
  1493: 000666   F000  brcs .-26      ;  0xcd4
  1494: 000667   C000  rjmp .+34      ;  0xd12
  1495: 000668   01F4  movw r30, r8
  1496: 000669   FD27  sbrc r18, 7
  1497: 00066A   9185  lpm r24, Z+
  1498: 00066B   FF27  sbrs r18, 7
  1499: 00066C   9181  ld r24, Z+
  1500: 00066D   014F  movw r8, r30
  1501: 00066E   E090  ldi r25, 0x00 ; 0
  1502: 00066F   01B6  movw r22, r12
  1503: 000670   872C  std Y+12, r18 ; 0x0c
  1504: 000671   940E  call 0xf44 ;  0xf44
        000672   0F44
  1505: 000673   852C  ldd r18, Y+12 ; 0x0c
  1506: 000674   10F1  cpse r15, r1
  1507: 000675   94FA  dec r15
  1508: 000676   9408  sec
  1509: 000677   08A1  sbc r10, r1
  1510: 000678   08B1  sbc r11, r1
  1511: 000679   14A1  cp r10, r1
  1512: 00067A   04B1  cpc r11, r1
  1513: 00067B   F401  brne .-40      ;  0xcf0
  1514: 00067C   C000  rjmp .+482     ;  0xefc
  1515: 00067D   3684  cpi r24, 0x64 ; 100
  1516: 00067E   F001  breq .+4       ;  0xd22
  1517: 00067F   3689  cpi r24, 0x69 ; 105
  1518: 000680   F401  brne .+82      ;  0xd74
  1519: 000681   FF27  sbrs r18, 7
  1520: 000682   C000  rjmp .+16      ;  0xd36
  1521: 000683   01F8  movw r30, r16
  1522: 000684   8160  ld r22, Z
  1523: 000685   8171  ldd r23, Z+1 ; 0x01
  1524: 000686   8182  ldd r24, Z+2 ; 0x02
  1525: 000687   8193  ldd r25, Z+3 ; 0x03
  1526: 000688   5F0C  subi r16, 0xFC ; 252
  1527: 000689   4F1F  sbci r17, 0xFF ; 255
  1528: 00068A   C000  rjmp .+18      ;  0xd48
  1529: 00068B   01F8  movw r30, r16
  1530: 00068C   8160  ld r22, Z
  1531: 00068D   8171  ldd r23, Z+1 ; 0x01
  1532: 00068E   2788  eor r24, r24
  1533: 00068F   FD77  sbrc r23, 7
  1534: 000690   9580  com r24
  1535: 000691   2F98  mov r25, r24
  1536: 000692   5F0E  subi r16, 0xFE ; 254
  1537: 000693   4F1F  sbci r17, 0xFF ; 255
  1538: 000694   E64F  ldi r20, 0x6F ; 111
  1539: 000695   2EB4  mov r11, r20
  1540: 000696   22B2  and r11, r18
  1541: 000697   FF97  sbrs r25, 7
  1542: 000698   C000  rjmp .+18      ;  0xd64
  1543: 000699   9590  com r25
  1544: 00069A   9580  com r24
  1545: 00069B   9570  com r23
  1546: 00069C   9561  neg r22
  1547: 00069D   4F7F  sbci r23, 0xFF ; 255
  1548: 00069E   4F8F  sbci r24, 0xFF ; 255
  1549: 00069F   4F9F  sbci r25, 0xFF ; 255
  1550: 0006A0   E8F0  ldi r31, 0x80 ; 128
  1551: 0006A1   2ABF  or r11, r31
  1552: 0006A2   01A2  movw r20, r4
  1553: 0006A3   E02A  ldi r18, 0x0A ; 10
  1554: 0006A4   E030  ldi r19, 0x00 ; 0
  1555: 0006A5   940E  call 0xf9c ;  0xf9c
        0006A6   0F9C
  1556: 0006A7   2E78  mov r7, r24
  1557: 0006A8   1874  sub r7, r4
  1558: 0006A9   C000  rjmp .+138     ;  0xdfe
  1559: 0006AA   3785  cpi r24, 0x75 ; 117
  1560: 0006AB   F401  brne .+12      ;  0xd84
  1561: 0006AC   EE3F  ldi r19, 0xEF ; 239
  1562: 0006AD   2EB3  mov r11, r19
  1563: 0006AE   22B2  and r11, r18
  1564: 0006AF   E02A  ldi r18, 0x0A ; 10
  1565: 0006B0   E030  ldi r19, 0x00 ; 0
  1566: 0006B1   C000  rjmp .+74      ;  0xdce
  1567: 0006B2   EF99  ldi r25, 0xF9 ; 249
  1568: 0006B3   2EB9  mov r11, r25
  1569: 0006B4   22B2  and r11, r18
  1570: 0006B5   368F  cpi r24, 0x6F ; 111
  1571: 0006B6   F001  breq .+48      ;  0xdbe
  1572: 0006B7   3780  cpi r24, 0x70 ; 112
  1573: 0006B8   F400  brcc .+8       ;  0xd9a
  1574: 0006B9   3588  cpi r24, 0x58 ; 88
  1575: 0006BA   F001  breq .+2       ;  0xd98
  1576: 0006BB   C000  rjmp .+362     ;  0xf02
  1577: 0006BC   C000  rjmp .+26      ;  0xdb4
  1578: 0006BD   3780  cpi r24, 0x70 ; 112
  1579: 0006BE   F001  breq .+8       ;  0xda6
  1580: 0006BF   3788  cpi r24, 0x78 ; 120
  1581: 0006C0   F001  breq .+2       ;  0xda4
  1582: 0006C1   C000  rjmp .+350     ;  0xf02
  1583: 0006C2   C000  rjmp .+4       ;  0xdaa
  1584: 0006C3   E120  ldi r18, 0x10 ; 16
  1585: 0006C4   2AB2  or r11, r18
  1586: 0006C5   FEB4  sbrs r11, 4
  1587: 0006C6   C000  rjmp .+22      ;  0xdc4
  1588: 0006C7   E084  ldi r24, 0x04 ; 4
  1589: 0006C8   2AB8  or r11, r24
  1590: 0006C9   C000  rjmp .+16      ;  0xdc4
  1591: 0006CA   FEB4  sbrs r11, 4
  1592: 0006CB   C000  rjmp .+18      ;  0xdca
  1593: 0006CC   E0E6  ldi r30, 0x06 ; 6
  1594: 0006CD   2ABE  or r11, r30
  1595: 0006CE   C000  rjmp .+12      ;  0xdca
  1596: 0006CF   E028  ldi r18, 0x08 ; 8
  1597: 0006D0   E030  ldi r19, 0x00 ; 0
  1598: 0006D1   C000  rjmp .+10      ;  0xdce
  1599: 0006D2   E120  ldi r18, 0x10 ; 16
  1600: 0006D3   E030  ldi r19, 0x00 ; 0
  1601: 0006D4   C000  rjmp .+4       ;  0xdce
  1602: 0006D5   E120  ldi r18, 0x10 ; 16
  1603: 0006D6   E032  ldi r19, 0x02 ; 2
  1604: 0006D7   FEB7  sbrs r11, 7
  1605: 0006D8   C000  rjmp .+16      ;  0xde2
  1606: 0006D9   01F8  movw r30, r16
  1607: 0006DA   8160  ld r22, Z
  1608: 0006DB   8171  ldd r23, Z+1 ; 0x01
  1609: 0006DC   8182  ldd r24, Z+2 ; 0x02
  1610: 0006DD   8193  ldd r25, Z+3 ; 0x03
  1611: 0006DE   5F0C  subi r16, 0xFC ; 252
  1612: 0006DF   4F1F  sbci r17, 0xFF ; 255
  1613: 0006E0   C000  rjmp .+14      ;  0xdf0
  1614: 0006E1   01F8  movw r30, r16
  1615: 0006E2   8160  ld r22, Z
  1616: 0006E3   8171  ldd r23, Z+1 ; 0x01
  1617: 0006E4   E080  ldi r24, 0x00 ; 0
  1618: 0006E5   E090  ldi r25, 0x00 ; 0
  1619: 0006E6   5F0E  subi r16, 0xFE ; 254
  1620: 0006E7   4F1F  sbci r17, 0xFF ; 255
  1621: 0006E8   01A2  movw r20, r4
  1622: 0006E9   940E  call 0xf9c ;  0xf9c
        0006EA   0F9C
  1623: 0006EB   2E78  mov r7, r24
  1624: 0006EC   1874  sub r7, r4
  1625: 0006ED   E7FF  ldi r31, 0x7F ; 127
  1626: 0006EE   22BF  and r11, r31
  1627: 0006EF   FEB6  sbrs r11, 6
  1628: 0006F0   C000  rjmp .+22      ;  0xe18
  1629: 0006F1   EF2E  ldi r18, 0xFE ; 254
  1630: 0006F2   22B2  and r11, r18
  1631: 0006F3   147E  cp r7, r14
  1632: 0006F4   F400  brcc .+14      ;  0xe18
  1633: 0006F5   FEB4  sbrs r11, 4
  1634: 0006F6   C000  rjmp .+14      ;  0xe1c
  1635: 0006F7   FCB2  sbrc r11, 2
  1636: 0006F8   C000  rjmp .+10      ;  0xe1c
  1637: 0006F9   EE8F  ldi r24, 0xEF ; 239
  1638: 0006FA   22B8  and r11, r24
  1639: 0006FB   C000  rjmp .+4       ;  0xe1c
  1640: 0006FC   2CA7  mov r10, r7
  1641: 0006FD   C000  rjmp .+2       ;  0xe1e
  1642: 0006FE   2CAE  mov r10, r14
  1643: 0006FF   2D8B  mov r24, r11
  1644: 000700   E090  ldi r25, 0x00 ; 0
  1645: 000701   FEB4  sbrs r11, 4
  1646: 000702   C000  rjmp .+26      ;  0xe40
  1647: 000703   01FE  movw r30, r28
  1648: 000704   0DE7  add r30, r7
  1649: 000705   1DF1  adc r31, r1
  1650: 000706   8120  ld r18, Z
  1651: 000707   3320  cpi r18, 0x30 ; 48
  1652: 000708   F401  brne .+6       ;  0xe38
  1653: 000709   EEE9  ldi r30, 0xE9 ; 233
  1654: 00070A   22BE  and r11, r30
  1655: 00070B   C000  rjmp .+18      ;  0xe4a
  1656: 00070C   94A3  inc r10
  1657: 00070D   FEB2  sbrs r11, 2
  1658: 00070E   C000  rjmp .+12      ;  0xe4a
  1659: 00070F   C000  rjmp .+8       ;  0xe48
  1660: 000710   7886  andi r24, 0x86 ; 134
  1661: 000711   7090  andi r25, 0x00 ; 0
  1662: 000712   9700  sbiw r24, 0x00 ; 0
  1663: 000713   F001  breq .+2       ;  0xe4a
  1664: 000714   94A3  inc r10
  1665: 000715   2C8B  mov r8, r11
  1666: 000716   2499  eor r9, r9
  1667: 000717   FCB3  sbrc r11, 3
  1668: 000718   C000  rjmp .+40      ;  0xe7a
  1669: 000719   FEB0  sbrs r11, 0
  1670: 00071A   C000  rjmp .+30      ;  0xe74
  1671: 00071B   14AF  cp r10, r15
  1672: 00071C   F400  brcc .+10      ;  0xe64
  1673: 00071D   2CE7  mov r14, r7
  1674: 00071E   0CEF  add r14, r15
  1675: 00071F   18EA  sub r14, r10
  1676: 000720   2CAF  mov r10, r15
  1677: 000721   C000  rjmp .+16      ;  0xe74
  1678: 000722   2CE7  mov r14, r7
  1679: 000723   C000  rjmp .+12      ;  0xe74
  1680: 000724   E280  ldi r24, 0x20 ; 32
  1681: 000725   E090  ldi r25, 0x00 ; 0
  1682: 000726   01B6  movw r22, r12
  1683: 000727   940E  call 0xf44 ;  0xf44
        000728   0F44
  1684: 000729   94A3  inc r10
  1685: 00072A   14AF  cp r10, r15
  1686: 00072B   F000  brcs .-16      ;  0xe68
  1687: 00072C   C000  rjmp .+8       ;  0xe82
  1688: 00072D   14AF  cp r10, r15
  1689: 00072E   F400  brcc .+4       ;  0xe82
  1690: 00072F   18FA  sub r15, r10
  1691: 000730   C000  rjmp .+2       ;  0xe84
  1692: 000731   24FF  eor r15, r15
  1693: 000732   FE84  sbrs r8, 4
  1694: 000733   C000  rjmp .+30      ;  0xea6
  1695: 000734   E380  ldi r24, 0x30 ; 48
  1696: 000735   E090  ldi r25, 0x00 ; 0
  1697: 000736   01B6  movw r22, r12
  1698: 000737   940E  call 0xf44 ;  0xf44
        000738   0F44
  1699: 000739   FE82  sbrs r8, 2
  1700: 00073A   C000  rjmp .+62      ;  0xed4
  1701: 00073B   FE81  sbrs r8, 1
  1702: 00073C   C000  rjmp .+6       ;  0xea0
  1703: 00073D   E588  ldi r24, 0x58 ; 88
  1704: 00073E   E090  ldi r25, 0x00 ; 0
  1705: 00073F   C000  rjmp .+32      ;  0xec0
  1706: 000740   E788  ldi r24, 0x78 ; 120
  1707: 000741   E090  ldi r25, 0x00 ; 0
  1708: 000742   C000  rjmp .+26      ;  0xec0
  1709: 000743   01C4  movw r24, r8
  1710: 000744   7886  andi r24, 0x86 ; 134
  1711: 000745   7090  andi r25, 0x00 ; 0
  1712: 000746   9700  sbiw r24, 0x00 ; 0
  1713: 000747   F001  breq .+36      ;  0xed4
  1714: 000748   FC81  sbrc r8, 1
  1715: 000749   C000  rjmp .+4       ;  0xeb8
  1716: 00074A   E280  ldi r24, 0x20 ; 32
  1717: 00074B   C000  rjmp .+2       ;  0xeba
  1718: 00074C   E28B  ldi r24, 0x2B ; 43
  1719: 00074D   FCB7  sbrc r11, 7
  1720: 00074E   E28D  ldi r24, 0x2D ; 45
  1721: 00074F   E090  ldi r25, 0x00 ; 0
  1722: 000750   01B6  movw r22, r12
  1723: 000751   940E  call 0xf44 ;  0xf44
        000752   0F44
  1724: 000753   C000  rjmp .+12      ;  0xed4
  1725: 000754   E380  ldi r24, 0x30 ; 48
  1726: 000755   E090  ldi r25, 0x00 ; 0
  1727: 000756   01B6  movw r22, r12
  1728: 000757   940E  call 0xf44 ;  0xf44
        000758   0F44
  1729: 000759   94EA  dec r14
  1730: 00075A   147E  cp r7, r14
  1731: 00075B   F000  brcs .-16      ;  0xec8
  1732: 00075C   947A  dec r7
  1733: 00075D   01F2  movw r30, r4
  1734: 00075E   0DE7  add r30, r7
  1735: 00075F   1DF1  adc r31, r1
  1736: 000760   8180  ld r24, Z
  1737: 000761   E090  ldi r25, 0x00 ; 0
  1738: 000762   01B6  movw r22, r12
  1739: 000763   940E  call 0xf44 ;  0xf44
        000764   0F44
  1740: 000765   2077  and r7, r7
  1741: 000766   F401  brne .-22      ;  0xed8
  1742: 000767   C000  rjmp .+12      ;  0xefc
  1743: 000768   E280  ldi r24, 0x20 ; 32
  1744: 000769   E090  ldi r25, 0x00 ; 0
  1745: 00076A   01B6  movw r22, r12
  1746: 00076B   940E  call 0xf44 ;  0xf44
        00076C   0F44
  1747: 00076D   94FA  dec r15
  1748: 00076E   20FF  and r15, r15
  1749: 00076F   F401  brne .-16      ;  0xef0
  1750: 000770   C000  rjmp .-914     ;  0xb70
  1751: 000771   01F6  movw r30, r12
  1752: 000772   8126  ldd r18, Z+6 ; 0x06
  1753: 000773   8137  ldd r19, Z+7 ; 0x07
  1754: 000774   C000  rjmp .+4       ;  0xf0e
  1755: 000775   EF2F  ldi r18, 0xFF ; 255
  1756: 000776   EF3F  ldi r19, 0xFF ; 255
  1757: 000777   01C9  movw r24, r18
  1758: 000778   962C  adiw r28, 0x0c ; 12
  1759: 000779   E1E2  ldi r30, 0x12 ; 18
  1760: 00077A   940C  jmp 0x9f2 ;  0x9f2
        00077B   09F2
  1761: 00077C   01FC  movw r30, r24
  1762: 00077D   9005  lpm r0, Z+
  1763: 00077E   5061  subi r22, 0x01 ; 1
  1764: 00077F   4070  sbci r23, 0x00 ; 0
  1765: 000780   1001  cpse r0, r1
  1766: 000781   F400  brcc .-10      ;  0xf1a
  1767: 000782   9580  com r24
  1768: 000783   9590  com r25
  1769: 000784   0F8E  add r24, r30
  1770: 000785   1F9F  adc r25, r31
  1771: 000786   9508  ret
  1772: 000787   01FC  movw r30, r24
  1773: 000788   5061  subi r22, 0x01 ; 1
  1774: 000789   4070  sbci r23, 0x00 ; 0
  1775: 00078A   9001  ld r0, Z+
  1776: 00078B   1001  cpse r0, r1
  1777: 00078C   F400  brcc .-10      ;  0xf30
  1778: 00078D   9580  com r24
  1779: 00078E   9590  com r25
  1780: 00078F   0F8E  add r24, r30
  1781: 000790   1F9F  adc r25, r31
  1782: 000791   9508  ret
  1783: 000792   930F  push r16
  1784: 000793   931F  push r17
  1785: 000794   93CF  push r28
  1786: 000795   93DF  push r29
  1787: 000796   018C  movw r16, r24
  1788: 000797   01EB  movw r28, r22
  1789: 000798   818B  ldd r24, Y+3 ; 0x03
  1790: 000799   FF81  sbrs r24, 1
  1791: 00079A   C000  rjmp .+54      ;  0xf8c
  1792: 00079B   FF82  sbrs r24, 2
  1793: 00079C   C000  rjmp .+26      ;  0xf74
  1794: 00079D   812E  ldd r18, Y+6 ; 0x06
  1795: 00079E   813F  ldd r19, Y+7 ; 0x07
  1796: 00079F   818C  ldd r24, Y+4 ; 0x04
  1797: 0007A0   819D  ldd r25, Y+5 ; 0x05
  1798: 0007A1   1728  cp r18, r24
  1799: 0007A2   0739  cpc r19, r25
  1800: 0007A3   F404  brge .+24      ;  0xf80
  1801: 0007A4   81E8  ld r30, Y
  1802: 0007A5   81F9  ldd r31, Y+1 ; 0x01
  1803: 0007A6   9301  st Z+, r16
  1804: 0007A7   83F9  std Y+1, r31 ; 0x01
  1805: 0007A8   83E8  st Y, r30
  1806: 0007A9   C000  rjmp .+12      ;  0xf80
  1807: 0007AA   85E8  ldd r30, Y+8 ; 0x08
  1808: 0007AB   85F9  ldd r31, Y+9 ; 0x09
  1809: 0007AC   2F80  mov r24, r16
  1810: 0007AD   9509  icall
  1811: 0007AE   9700  sbiw r24, 0x00 ; 0
  1812: 0007AF   F401  brne .+12      ;  0xf8c
  1813: 0007B0   818E  ldd r24, Y+6 ; 0x06
  1814: 0007B1   819F  ldd r25, Y+7 ; 0x07
  1815: 0007B2   9601  adiw r24, 0x01 ; 1
  1816: 0007B3   839F  std Y+7, r25 ; 0x07
  1817: 0007B4   838E  std Y+6, r24 ; 0x06
  1818: 0007B5   C000  rjmp .+4       ;  0xf90
  1819: 0007B6   EF0F  ldi r16, 0xFF ; 255
  1820: 0007B7   EF1F  ldi r17, 0xFF ; 255
  1821: 0007B8   01C8  movw r24, r16
  1822: 0007B9   91DF  pop r29
  1823: 0007BA   91CF  pop r28
  1824: 0007BB   911F  pop r17
  1825: 0007BC   910F  pop r16
  1826: 0007BD   9508  ret
  1827: 0007BE   01FA  movw r30, r20
  1828: 0007BF   27AA  eor r26, r26
  1829: 0007C0   3028  cpi r18, 0x08 ; 8
  1830: 0007C1   F001  breq .+84      ;  0xff8
  1831: 0007C2   3120  cpi r18, 0x10 ; 16
  1832: 0007C3   F001  breq .+96      ;  0x1008
  1833: 0007C4   94E8  clt
  1834: 0007C5   936F  push r22
  1835: 0007C6   7F6E  andi r22, 0xFE ; 254
  1836: 0007C7   5F6E  subi r22, 0xFE ; 254
  1837: 0007C8   4F7F  sbci r23, 0xFF ; 255
  1838: 0007C9   4F8F  sbci r24, 0xFF ; 255
  1839: 0007CA   4F9F  sbci r25, 0xFF ; 255
  1840: 0007CB   4FAF  sbci r26, 0xFF ; 255
  1841: 0007CC   E0B1  ldi r27, 0x01 ; 1
  1842: 0007CD   D000  rcall .+124     ;  0x1038
  1843: 0007CE   E0B4  ldi r27, 0x04 ; 4
  1844: 0007CF   D000  rcall .+120     ;  0x1038
  1845: 0007D0   0F67  add r22, r23
  1846: 0007D1   1F78  adc r23, r24
  1847: 0007D2   1F89  adc r24, r25
  1848: 0007D3   1F9A  adc r25, r26
  1849: 0007D4   1DA1  adc r26, r1
  1850: 0007D5   0F68  add r22, r24
  1851: 0007D6   1F79  adc r23, r25
  1852: 0007D7   1F8A  adc r24, r26
  1853: 0007D8   1D91  adc r25, r1
  1854: 0007D9   1DA1  adc r26, r1
  1855: 0007DA   0F6A  add r22, r26
  1856: 0007DB   1D71  adc r23, r1
  1857: 0007DC   1D81  adc r24, r1
  1858: 0007DD   1D91  adc r25, r1
  1859: 0007DE   1DA1  adc r26, r1
  1860: 0007DF   D000  rcall .+64      ;  0x1020
  1861: 0007E0   F401  brne .+2       ;  0xfe4
  1862: 0007E1   9468  set
  1863: 0007E2   913F  pop r19
  1864: 0007E3   E02A  ldi r18, 0x0A ; 10
  1865: 0007E4   9F26  mul r18, r22
  1866: 0007E5   2411  eor r1, r1
  1867: 0007E6   1930  sub r19, r0
  1868: 0007E7   5D30  subi r19, 0xD0 ; 208
  1869: 0007E8   9331  st Z+, r19
  1870: 0007E9   F406  brtc .-74      ;  0xfaa
  1871: 0007EA   01CF  movw r24, r30
  1872: 0007EB   9508  ret
  1873: 0007EC   2F46  mov r20, r22
  1874: 0007ED   7047  andi r20, 0x07 ; 7
  1875: 0007EE   5D40  subi r20, 0xD0 ; 208
  1876: 0007EF   9341  st Z+, r20
  1877: 0007F0   E0B3  ldi r27, 0x03 ; 3
  1878: 0007F1   D000  rcall .+30      ;  0x1022
  1879: 0007F2   F401  brne .-14      ;  0xff8
  1880: 0007F3   C000  rjmp .-20      ;  0xff4
  1881: 0007F4   2F46  mov r20, r22
  1882: 0007F5   704F  andi r20, 0x0F ; 15
  1883: 0007F6   5D40  subi r20, 0xD0 ; 208
  1884: 0007F7   334A  cpi r20, 0x3A ; 58
  1885: 0007F8   F000  brcs .+6       ;  0x1018
  1886: 0007F9   5D49  subi r20, 0xD9 ; 217
  1887: 0007FA   FD31  sbrc r19, 1
  1888: 0007FB   5240  subi r20, 0x20 ; 32
  1889: 0007FC   9341  st Z+, r20
  1890: 0007FD   D000  rcall .+4       ;  0x1020
  1891: 0007FE   F401  brne .-22      ;  0x1008
  1892: 0007FF   C000  rjmp .-44      ;  0xff4
  1893: 000800   E0B4  ldi r27, 0x04 ; 4
  1894: 000801   95A6  lsr r26
  1895: 000802   9597  ror r25
  1896: 000803   9587  ror r24
  1897: 000804   9577  ror r23
  1898: 000805   9567  ror r22
  1899: 000806   95BA  dec r27
  1900: 000807   F401  brne .-14      ;  0x1022
  1901: 000808   9700  sbiw r24, 0x00 ; 0
  1902: 000809   0561  cpc r22, r1
  1903: 00080A   0571  cpc r23, r1
  1904: 00080B   9508  ret
  1905: 00080C   019B  movw r18, r22
  1906: 00080D   01AC  movw r20, r24
  1907: 00080E   2E0A  mov r0, r26
  1908: 00080F   9406  lsr r0
  1909: 000810   9557  ror r21
  1910: 000811   9547  ror r20
  1911: 000812   9537  ror r19
  1912: 000813   9527  ror r18
  1913: 000814   95BA  dec r27
  1914: 000815   F401  brne .-14      ;  0x103e
  1915: 000816   0F62  add r22, r18
  1916: 000817   1F73  adc r23, r19
  1917: 000818   1F84  adc r24, r20
  1918: 000819   1F95  adc r25, r21
  1919: 00081A   1DA0  adc r26, r0
  1920: 00081B   9508  ret
  1921: 00081C   9F62  mul r22, r18
  1922: 00081D   01D0  movw r26, r0
  1923: 00081E   9F73  mul r23, r19
  1924: 00081F   01F0  movw r30, r0
  1925: 000820   9F82  mul r24, r18
  1926: 000821   0DE0  add r30, r0
  1927: 000822   1DF1  adc r31, r1
  1928: 000823   9F64  mul r22, r20
  1929: 000824   0DE0  add r30, r0
  1930: 000825   1DF1  adc r31, r1
  1931: 000826   9F92  mul r25, r18
  1932: 000827   0DF0  add r31, r0
  1933: 000828   9F83  mul r24, r19
  1934: 000829   0DF0  add r31, r0
  1935: 00082A   9F74  mul r23, r20
  1936: 00082B   0DF0  add r31, r0
  1937: 00082C   9F65  mul r22, r21
  1938: 00082D   0DF0  add r31, r0
  1939: 00082E   2799  eor r25, r25
  1940: 00082F   9F72  mul r23, r18
  1941: 000830   0DB0  add r27, r0
  1942: 000831   1DE1  adc r30, r1
  1943: 000832   1FF9  adc r31, r25
  1944: 000833   9F63  mul r22, r19
  1945: 000834   0DB0  add r27, r0
  1946: 000835   1DE1  adc r30, r1
  1947: 000836   1FF9  adc r31, r25
  1948: 000837   01BD  movw r22, r26
  1949: 000838   01CF  movw r24, r30
  1950: 000839   2411  eor r1, r1
  1951: 00083A   9508  ret
  1952: 00083B   FB97  bst r25, 7
  1953: 00083C   2E09  mov r0, r25
  1954: 00083D   2605  eor r0, r21
  1955: 00083E   D000  rcall .+28      ;  0x10ba
  1956: 00083F   FD57  sbrc r21, 7
  1957: 000840   D000  rcall .+8       ;  0x10aa
  1958: 000841   D000  rcall .+40      ;  0x10cc
  1959: 000842   D000  rcall .+20      ;  0x10ba
  1960: 000843   1C00  adc r0, r0
  1961: 000844   F400  brcc .+14      ;  0x10b8
  1962: 000845   9550  com r21
  1963: 000846   9540  com r20
  1964: 000847   9530  com r19
  1965: 000848   9521  neg r18
  1966: 000849   4F3F  sbci r19, 0xFF ; 255
  1967: 00084A   4F4F  sbci r20, 0xFF ; 255
  1968: 00084B   4F5F  sbci r21, 0xFF ; 255
  1969: 00084C   9508  ret
  1970: 00084D   F406  brtc .-4       ;  0x10b8
  1971: 00084E   9590  com r25
  1972: 00084F   9580  com r24
  1973: 000850   9570  com r23
  1974: 000851   9561  neg r22
  1975: 000852   4F7F  sbci r23, 0xFF ; 255
  1976: 000853   4F8F  sbci r24, 0xFF ; 255
  1977: 000854   4F9F  sbci r25, 0xFF ; 255
  1978: 000855   9508  ret
  1979: 000856   E2A1  ldi r26, 0x21 ; 33
  1980: 000857   2E1A  mov r1, r26
  1981: 000858   1BAA  sub r26, r26
  1982: 000859   1BBB  sub r27, r27
  1983: 00085A   01FD  movw r30, r26
  1984: 00085B   C000  rjmp .+26      ;  0x10f2
  1985: 00085C   1FAA  adc r26, r26
  1986: 00085D   1FBB  adc r27, r27
  1987: 00085E   1FEE  adc r30, r30
  1988: 00085F   1FFF  adc r31, r31
  1989: 000860   17A2  cp r26, r18
  1990: 000861   07B3  cpc r27, r19
  1991: 000862   07E4  cpc r30, r20
  1992: 000863   07F5  cpc r31, r21
  1993: 000864   F000  brcs .+8       ;  0x10f2
  1994: 000865   1BA2  sub r26, r18
  1995: 000866   0BB3  sbc r27, r19
  1996: 000867   0BE4  sbc r30, r20
  1997: 000868   0BF5  sbc r31, r21
  1998: 000869   1F66  adc r22, r22
  1999: 00086A   1F77  adc r23, r23
  2000: 00086B   1F88  adc r24, r24
  2001: 00086C   1F99  adc r25, r25
  2002: 00086D   941A  dec r1
  2003: 00086E   F401  brne .-38      ;  0x10d8
  2004: 00086F   9560  com r22
  2005: 000870   9570  com r23
  2006: 000871   9580  com r24
  2007: 000872   9590  com r25
  2008: 000873   019B  movw r18, r22
  2009: 000874   01AC  movw r20, r24
  2010: 000875   01BD  movw r22, r26
  2011: 000876   01CF  movw r24, r30
  2012: 000877   9508  ret
  2013: 000878   94F8  cli
  2014: 000879   C000  rjmp .-2       ;  0x1112
  2015: 00087A   7325  andi r18, 0x35 ; 53
  2016: 00087B   6425  ori r18, 0x45 ; 69
  2017: 00087C   202C  and r2, r12
  2018: 00087D   6425  ori r18, 0x45 ; 69
  2019: 00087E   2020  and r2, r0
  2020: 00087F   4700  sbci r16, 0x70 ; 112
  2021: 000880   6D61  ori r22, 0xD1 ; 209
  2022: 000881   2065  and r6, r5
  2023: 000882   666F  ori r22, 0x6F ; 111
  2024: 000883   4C20  sbci r18, 0xC0 ; 192
  2025: 000884   6669  ori r22, 0x69 ; 105
  2026: 000885   3A65  cpi r22, 0xA5 ; 165
  2027: 000886   2000  and r0, r0
  2028: 000887   2020  and r2, r0
  2029: 000888   2020  and r2, r0
  2030: 000889   2020  and r2, r0
  2031: 00088A   2020  and r2, r0
  2032: 00088B   2020  and r2, r0
  2033: 00088C   2020  and r2, r0
  2034: 00088D   2020  and r2, r0
  2035: 00088E   2020  and r2, r0
  2036: 00088F   2020  and r2, r0
  2037: 000890   0000  nop
  2038: 000891   0101  movw r0, r2
  2039: 000892   0100  movw r0, r0
  2040: 000893   0000  nop
  2041: 000894   0000  nop
  2042: 000895   0000  nop
  2043: 000896   0100  movw r0, r0
  2044: 000897   0101  movw r0, r2
  2045: 000898   1F14  adc r17, r20
  2046: 000899   3920  cpi r18, 0x90 ; 144
  2047: 00089A   4E45  sbci r20, 0xE5 ; 229
 -> Warning 001: 1 symbol(s) defined, but not used!

Program             :     2203 words.
Constants           :        0 words.
Total program memory:     2203 words.
Eeprom space        :        0 bytes.
Data segment        :        0 bytes.
Compilation completed, no errors.
Compilation endet 08.02.2014, 19:08:32
